
rv32uzfh-p-fcvt:     формат файла elf32-littleriscv


Дизассемблирование раздела .text.init:

80000000 <_start>:
80000000:	0480006f          	j	80000048 <reset_vector>

80000004 <trap_vector>:
80000004:	34202f73          	csrr	t5,mcause
80000008:	00800f93          	li	t6,8
8000000c:	03ff0863          	beq	t5,t6,8000003c <write_tohost>
80000010:	00900f93          	li	t6,9
80000014:	03ff0463          	beq	t5,t6,8000003c <write_tohost>
80000018:	00b00f93          	li	t6,11
8000001c:	03ff0063          	beq	t5,t6,8000003c <write_tohost>
80000020:	00000f13          	li	t5,0
80000024:	000f0463          	beqz	t5,8000002c <trap_vector+0x28>
80000028:	000f0067          	jr	t5
8000002c:	34202f73          	csrr	t5,mcause
80000030:	000f5463          	bgez	t5,80000038 <handle_exception>
80000034:	0040006f          	j	80000038 <handle_exception>

80000038 <handle_exception>:
80000038:	5391e193          	ori	gp,gp,1337

8000003c <write_tohost>:
8000003c:	00001f17          	auipc	t5,0x1
80000040:	fc3f2223          	sw	gp,-60(t5) # 80001000 <tohost>
80000044:	ff9ff06f          	j	8000003c <write_tohost>

80000048 <reset_vector>:
80000048:	00000093          	li	ra,0
8000004c:	00000113          	li	sp,0
80000050:	00000193          	li	gp,0
80000054:	00000213          	li	tp,0
80000058:	00000293          	li	t0,0
8000005c:	00000313          	li	t1,0
80000060:	00000393          	li	t2,0
80000064:	00000413          	li	s0,0
80000068:	00000493          	li	s1,0
8000006c:	00000513          	li	a0,0
80000070:	00000593          	li	a1,0
80000074:	00000613          	li	a2,0
80000078:	00000693          	li	a3,0
8000007c:	00000713          	li	a4,0
80000080:	00000793          	li	a5,0
80000084:	00000813          	li	a6,0
80000088:	00000893          	li	a7,0
8000008c:	00000913          	li	s2,0
80000090:	00000993          	li	s3,0
80000094:	00000a13          	li	s4,0
80000098:	00000a93          	li	s5,0
8000009c:	00000b13          	li	s6,0
800000a0:	00000b93          	li	s7,0
800000a4:	00000c13          	li	s8,0
800000a8:	00000c93          	li	s9,0
800000ac:	00000d13          	li	s10,0
800000b0:	00000d93          	li	s11,0
800000b4:	00000e13          	li	t3,0
800000b8:	00000e93          	li	t4,0
800000bc:	00000f13          	li	t5,0
800000c0:	00000f93          	li	t6,0
800000c4:	f1402573          	csrr	a0,mhartid
800000c8:	00051063          	bnez	a0,800000c8 <reset_vector+0x80>
800000cc:	00000297          	auipc	t0,0x0
800000d0:	01028293          	addi	t0,t0,16 # 800000dc <reset_vector+0x94>
800000d4:	30529073          	csrw	mtvec,t0
800000d8:	18005073          	csrwi	satp,0
800000dc:	00000297          	auipc	t0,0x0
800000e0:	02028293          	addi	t0,t0,32 # 800000fc <reset_vector+0xb4>
800000e4:	30529073          	csrw	mtvec,t0
800000e8:	800002b7          	lui	t0,0x80000
800000ec:	fff28293          	addi	t0,t0,-1 # 7fffffff <_end+0xffffdfef>
800000f0:	3b029073          	csrw	pmpaddr0,t0
800000f4:	01f00293          	li	t0,31
800000f8:	3a029073          	csrw	pmpcfg0,t0
800000fc:	30405073          	csrwi	mie,0
80000100:	00000297          	auipc	t0,0x0
80000104:	01428293          	addi	t0,t0,20 # 80000114 <reset_vector+0xcc>
80000108:	30529073          	csrw	mtvec,t0
8000010c:	30205073          	csrwi	medeleg,0
80000110:	30305073          	csrwi	mideleg,0
80000114:	00000193          	li	gp,0
80000118:	00000297          	auipc	t0,0x0
8000011c:	eec28293          	addi	t0,t0,-276 # 80000004 <trap_vector>
80000120:	30529073          	csrw	mtvec,t0
80000124:	00100513          	li	a0,1
80000128:	01f51513          	slli	a0,a0,0x1f
8000012c:	00054c63          	bltz	a0,80000144 <reset_vector+0xfc>
80000130:	0ff0000f          	fence
80000134:	00100193          	li	gp,1
80000138:	05d00893          	li	a7,93
8000013c:	00000513          	li	a0,0
80000140:	00000073          	ecall
80000144:	00000293          	li	t0,0
80000148:	00028a63          	beqz	t0,8000015c <reset_vector+0x114>
8000014c:	10529073          	csrw	stvec,t0
80000150:	0000b2b7          	lui	t0,0xb
80000154:	10928293          	addi	t0,t0,265 # b109 <_start-0x7fff4ef7>
80000158:	30229073          	csrw	medeleg,t0
8000015c:	30005073          	csrwi	mstatus,0
80000160:	00002537          	lui	a0,0x2
80000164:	30052073          	csrs	mstatus,a0
80000168:	00305073          	csrwi	fcsr,0
8000016c:	00000297          	auipc	t0,0x0
80000170:	01428293          	addi	t0,t0,20 # 80000180 <test_2>
80000174:	34129073          	csrw	mepc,t0
80000178:	f1402573          	csrr	a0,mhartid
8000017c:	30200073          	mret

80000180 <test_2>:
80000180:	00200193          	li	gp,2
80000184:	00002517          	auipc	a0,0x2
80000188:	e7c50513          	addi	a0,a0,-388 # 80002000 <test_2_data>
8000018c:	00051683          	lh	a3,0(a0)
80000190:	00200513          	li	a0,2
80000194:	d4057053          	fcvt.h.w	ft0,a0
80000198:	00101073          	fsflags	zero
8000019c:	e4000553          	fmv.x.h	a0,ft0
800001a0:	0ad51663          	bne	a0,a3,8000024c <fail>

800001a4 <test_3>:
800001a4:	00300193          	li	gp,3
800001a8:	00002517          	auipc	a0,0x2
800001ac:	e5a50513          	addi	a0,a0,-422 # 80002002 <test_3_data>
800001b0:	00051683          	lh	a3,0(a0)
800001b4:	ffe00513          	li	a0,-2
800001b8:	d4057053          	fcvt.h.w	ft0,a0
800001bc:	00101073          	fsflags	zero
800001c0:	e4000553          	fmv.x.h	a0,ft0
800001c4:	08d51463          	bne	a0,a3,8000024c <fail>

800001c8 <test_4>:
800001c8:	00400193          	li	gp,4
800001cc:	00002517          	auipc	a0,0x2
800001d0:	e3850513          	addi	a0,a0,-456 # 80002004 <test_4_data>
800001d4:	00051683          	lh	a3,0(a0)
800001d8:	00200513          	li	a0,2
800001dc:	d4157053          	fcvt.h.wu	ft0,a0
800001e0:	00101073          	fsflags	zero
800001e4:	e4000553          	fmv.x.h	a0,ft0
800001e8:	06d51263          	bne	a0,a3,8000024c <fail>

800001ec <test_5>:
800001ec:	00500193          	li	gp,5
800001f0:	00002517          	auipc	a0,0x2
800001f4:	e1650513          	addi	a0,a0,-490 # 80002006 <test_5_data>
800001f8:	00051683          	lh	a3,0(a0)
800001fc:	ffe00513          	li	a0,-2
80000200:	d4157053          	fcvt.h.wu	ft0,a0
80000204:	00101073          	fsflags	zero
80000208:	e4000553          	fmv.x.h	a0,ft0
8000020c:	04d51063          	bne	a0,a3,8000024c <fail>

80000210 <test_10>:
80000210:	00a00193          	li	gp,10
80000214:	00002517          	auipc	a0,0x2
80000218:	df450513          	addi	a0,a0,-524 # 80002008 <test_10_data>
8000021c:	00051007          	flh	ft0,0(a0)
80000220:	00251087          	flh	ft1,2(a0)
80000224:	00451107          	flh	ft2,4(a0)
80000228:	00651683          	lh	a3,6(a0)
8000022c:	402001d3          	fcvt.s.h	ft3,ft0
80000230:	4401f1d3          	fcvt.h.s	ft3,ft3
80000234:	e4018553          	fmv.x.h	a0,ft3
80000238:	001015f3          	fsflags	a1,zero
8000023c:	00000613          	li	a2,0
80000240:	00d51663          	bne	a0,a3,8000024c <fail>
80000244:	00c59463          	bne	a1,a2,8000024c <fail>
80000248:	02301063          	bne	zero,gp,80000268 <pass>

8000024c <fail>:
8000024c:	0ff0000f          	fence
80000250:	00018063          	beqz	gp,80000250 <fail+0x4>
80000254:	00119193          	slli	gp,gp,0x1
80000258:	0011e193          	ori	gp,gp,1
8000025c:	05d00893          	li	a7,93
80000260:	00018513          	mv	a0,gp
80000264:	00000073          	ecall

80000268 <pass>:
80000268:	0ff0000f          	fence
8000026c:	00100193          	li	gp,1
80000270:	05d00893          	li	a7,93
80000274:	00000513          	li	a0,0
80000278:	00000073          	ecall
8000027c:	c0001073          	unimp
80000280:	0000                	.2byte	0x0
80000282:	0000                	.2byte	0x0
80000284:	0000                	.2byte	0x0
80000286:	0000                	.2byte	0x0
80000288:	0000                	.2byte	0x0
8000028a:	0000                	.2byte	0x0
8000028c:	0000                	.2byte	0x0
8000028e:	0000                	.2byte	0x0
80000290:	0000                	.2byte	0x0
80000292:	0000                	.2byte	0x0
80000294:	0000                	.2byte	0x0
80000296:	0000                	.2byte	0x0
80000298:	0000                	.2byte	0x0
8000029a:	0000                	.2byte	0x0
8000029c:	0000                	.2byte	0x0
8000029e:	0000                	.2byte	0x0
800002a0:	0000                	.2byte	0x0
800002a2:	0000                	.2byte	0x0
800002a4:	0000                	.2byte	0x0
800002a6:	0000                	.2byte	0x0
800002a8:	0000                	.2byte	0x0
800002aa:	0000                	.2byte	0x0
800002ac:	0000                	.2byte	0x0
800002ae:	0000                	.2byte	0x0
800002b0:	0000                	.2byte	0x0
800002b2:	0000                	.2byte	0x0
800002b4:	0000                	.2byte	0x0
800002b6:	0000                	.2byte	0x0
800002b8:	0000                	.2byte	0x0
800002ba:	0000                	.2byte	0x0

Дизассемблирование раздела .data:

80002000 <test_2_data>:
80002000:	4000                	.2byte	0x4000

80002002 <test_3_data>:
80002002:	c000                	.2byte	0xc000

80002004 <test_4_data>:
80002004:	4000                	.2byte	0x4000

80002006 <test_5_data>:
80002006:	7c00                	.2byte	0x7c00

80002008 <test_10_data>:
80002008:	be00                	.2byte	0xbe00
8000200a:	0000                	.2byte	0x0
8000200c:	0000                	.2byte	0x0
8000200e:	be00                	.2byte	0xbe00
