
rv32uzfh-p-fcvt_w:     формат файла elf32-littleriscv


Дизассемблирование раздела .text.init:

80000000 <_start>:
80000000:	0480006f          	j	80000048 <reset_vector>

80000004 <trap_vector>:
80000004:	34202f73          	csrr	t5,mcause
80000008:	00800f93          	li	t6,8
8000000c:	03ff0863          	beq	t5,t6,8000003c <write_tohost>
80000010:	00900f93          	li	t6,9
80000014:	03ff0463          	beq	t5,t6,8000003c <write_tohost>
80000018:	00b00f93          	li	t6,11
8000001c:	03ff0063          	beq	t5,t6,8000003c <write_tohost>
80000020:	00000f13          	li	t5,0
80000024:	000f0463          	beqz	t5,8000002c <trap_vector+0x28>
80000028:	000f0067          	jr	t5
8000002c:	34202f73          	csrr	t5,mcause
80000030:	000f5463          	bgez	t5,80000038 <handle_exception>
80000034:	0040006f          	j	80000038 <handle_exception>

80000038 <handle_exception>:
80000038:	5391e193          	ori	gp,gp,1337

8000003c <write_tohost>:
8000003c:	00001f17          	auipc	t5,0x1
80000040:	fc3f2223          	sw	gp,-60(t5) # 80001000 <tohost>
80000044:	ff9ff06f          	j	8000003c <write_tohost>

80000048 <reset_vector>:
80000048:	00000093          	li	ra,0
8000004c:	00000113          	li	sp,0
80000050:	00000193          	li	gp,0
80000054:	00000213          	li	tp,0
80000058:	00000293          	li	t0,0
8000005c:	00000313          	li	t1,0
80000060:	00000393          	li	t2,0
80000064:	00000413          	li	s0,0
80000068:	00000493          	li	s1,0
8000006c:	00000513          	li	a0,0
80000070:	00000593          	li	a1,0
80000074:	00000613          	li	a2,0
80000078:	00000693          	li	a3,0
8000007c:	00000713          	li	a4,0
80000080:	00000793          	li	a5,0
80000084:	00000813          	li	a6,0
80000088:	00000893          	li	a7,0
8000008c:	00000913          	li	s2,0
80000090:	00000993          	li	s3,0
80000094:	00000a13          	li	s4,0
80000098:	00000a93          	li	s5,0
8000009c:	00000b13          	li	s6,0
800000a0:	00000b93          	li	s7,0
800000a4:	00000c13          	li	s8,0
800000a8:	00000c93          	li	s9,0
800000ac:	00000d13          	li	s10,0
800000b0:	00000d93          	li	s11,0
800000b4:	00000e13          	li	t3,0
800000b8:	00000e93          	li	t4,0
800000bc:	00000f13          	li	t5,0
800000c0:	00000f93          	li	t6,0
800000c4:	f1402573          	csrr	a0,mhartid
800000c8:	00051063          	bnez	a0,800000c8 <reset_vector+0x80>
800000cc:	00000297          	auipc	t0,0x0
800000d0:	01028293          	addi	t0,t0,16 # 800000dc <reset_vector+0x94>
800000d4:	30529073          	csrw	mtvec,t0
800000d8:	18005073          	csrwi	satp,0
800000dc:	00000297          	auipc	t0,0x0
800000e0:	02028293          	addi	t0,t0,32 # 800000fc <reset_vector+0xb4>
800000e4:	30529073          	csrw	mtvec,t0
800000e8:	800002b7          	lui	t0,0x80000
800000ec:	fff28293          	addi	t0,t0,-1 # 7fffffff <_end+0xffffdf4f>
800000f0:	3b029073          	csrw	pmpaddr0,t0
800000f4:	01f00293          	li	t0,31
800000f8:	3a029073          	csrw	pmpcfg0,t0
800000fc:	30405073          	csrwi	mie,0
80000100:	00000297          	auipc	t0,0x0
80000104:	01428293          	addi	t0,t0,20 # 80000114 <reset_vector+0xcc>
80000108:	30529073          	csrw	mtvec,t0
8000010c:	30205073          	csrwi	medeleg,0
80000110:	30305073          	csrwi	mideleg,0
80000114:	00000193          	li	gp,0
80000118:	00000297          	auipc	t0,0x0
8000011c:	eec28293          	addi	t0,t0,-276 # 80000004 <trap_vector>
80000120:	30529073          	csrw	mtvec,t0
80000124:	00100513          	li	a0,1
80000128:	01f51513          	slli	a0,a0,0x1f
8000012c:	00054c63          	bltz	a0,80000144 <reset_vector+0xfc>
80000130:	0ff0000f          	fence
80000134:	00100193          	li	gp,1
80000138:	05d00893          	li	a7,93
8000013c:	00000513          	li	a0,0
80000140:	00000073          	ecall
80000144:	00000293          	li	t0,0
80000148:	00028a63          	beqz	t0,8000015c <reset_vector+0x114>
8000014c:	10529073          	csrw	stvec,t0
80000150:	0000b2b7          	lui	t0,0xb
80000154:	10928293          	addi	t0,t0,265 # b109 <_start-0x7fff4ef7>
80000158:	30229073          	csrw	medeleg,t0
8000015c:	30005073          	csrwi	mstatus,0
80000160:	00002537          	lui	a0,0x2
80000164:	30052073          	csrs	mstatus,a0
80000168:	00305073          	csrwi	fcsr,0
8000016c:	00000297          	auipc	t0,0x0
80000170:	01428293          	addi	t0,t0,20 # 80000180 <test_2>
80000174:	34129073          	csrw	mepc,t0
80000178:	f1402573          	csrr	a0,mhartid
8000017c:	30200073          	mret

80000180 <test_2>:
80000180:	00200193          	li	gp,2
80000184:	00002517          	auipc	a0,0x2
80000188:	e7c50513          	addi	a0,a0,-388 # 80002000 <test_2_data>
8000018c:	00051007          	flh	ft0,0(a0)
80000190:	00251087          	flh	ft1,2(a0)
80000194:	00451107          	flh	ft2,4(a0)
80000198:	00651683          	lh	a3,6(a0)
8000019c:	c4001553          	fcvt.w.h	a0,ft0,rtz
800001a0:	001015f3          	fsflags	a1,zero
800001a4:	00100613          	li	a2,1
800001a8:	3cd51463          	bne	a0,a3,80000570 <fail>
800001ac:	3cc59263          	bne	a1,a2,80000570 <fail>

800001b0 <test_3>:
800001b0:	00300193          	li	gp,3
800001b4:	00002517          	auipc	a0,0x2
800001b8:	e5650513          	addi	a0,a0,-426 # 8000200a <test_3_data>
800001bc:	00051007          	flh	ft0,0(a0)
800001c0:	00251087          	flh	ft1,2(a0)
800001c4:	00451107          	flh	ft2,4(a0)
800001c8:	00651683          	lh	a3,6(a0)
800001cc:	c4001553          	fcvt.w.h	a0,ft0,rtz
800001d0:	001015f3          	fsflags	a1,zero
800001d4:	00000613          	li	a2,0
800001d8:	38d51c63          	bne	a0,a3,80000570 <fail>
800001dc:	38c59a63          	bne	a1,a2,80000570 <fail>

800001e0 <test_4>:
800001e0:	00400193          	li	gp,4
800001e4:	00002517          	auipc	a0,0x2
800001e8:	e3050513          	addi	a0,a0,-464 # 80002014 <test_4_data>
800001ec:	00051007          	flh	ft0,0(a0)
800001f0:	00251087          	flh	ft1,2(a0)
800001f4:	00451107          	flh	ft2,4(a0)
800001f8:	00651683          	lh	a3,6(a0)
800001fc:	c4001553          	fcvt.w.h	a0,ft0,rtz
80000200:	001015f3          	fsflags	a1,zero
80000204:	00100613          	li	a2,1
80000208:	36d51463          	bne	a0,a3,80000570 <fail>
8000020c:	36c59263          	bne	a1,a2,80000570 <fail>

80000210 <test_5>:
80000210:	00500193          	li	gp,5
80000214:	00002517          	auipc	a0,0x2
80000218:	e0a50513          	addi	a0,a0,-502 # 8000201e <test_5_data>
8000021c:	00051007          	flh	ft0,0(a0)
80000220:	00251087          	flh	ft1,2(a0)
80000224:	00451107          	flh	ft2,4(a0)
80000228:	00651683          	lh	a3,6(a0)
8000022c:	c4001553          	fcvt.w.h	a0,ft0,rtz
80000230:	001015f3          	fsflags	a1,zero
80000234:	00100613          	li	a2,1
80000238:	32d51c63          	bne	a0,a3,80000570 <fail>
8000023c:	32c59a63          	bne	a1,a2,80000570 <fail>

80000240 <test_6>:
80000240:	00600193          	li	gp,6
80000244:	00002517          	auipc	a0,0x2
80000248:	de450513          	addi	a0,a0,-540 # 80002028 <test_6_data>
8000024c:	00051007          	flh	ft0,0(a0)
80000250:	00251087          	flh	ft1,2(a0)
80000254:	00451107          	flh	ft2,4(a0)
80000258:	00651683          	lh	a3,6(a0)
8000025c:	c4001553          	fcvt.w.h	a0,ft0,rtz
80000260:	001015f3          	fsflags	a1,zero
80000264:	00000613          	li	a2,0
80000268:	30d51463          	bne	a0,a3,80000570 <fail>
8000026c:	30c59263          	bne	a1,a2,80000570 <fail>

80000270 <test_7>:
80000270:	00700193          	li	gp,7
80000274:	00002517          	auipc	a0,0x2
80000278:	dbe50513          	addi	a0,a0,-578 # 80002032 <test_7_data>
8000027c:	00051007          	flh	ft0,0(a0)
80000280:	00251087          	flh	ft1,2(a0)
80000284:	00451107          	flh	ft2,4(a0)
80000288:	00651683          	lh	a3,6(a0)
8000028c:	c4001553          	fcvt.w.h	a0,ft0,rtz
80000290:	001015f3          	fsflags	a1,zero
80000294:	00100613          	li	a2,1
80000298:	2cd51c63          	bne	a0,a3,80000570 <fail>
8000029c:	2cc59a63          	bne	a1,a2,80000570 <fail>

800002a0 <test_8>:
800002a0:	00800193          	li	gp,8
800002a4:	00002517          	auipc	a0,0x2
800002a8:	d9850513          	addi	a0,a0,-616 # 8000203c <test_8_data>
800002ac:	00051007          	flh	ft0,0(a0)
800002b0:	00251087          	flh	ft1,2(a0)
800002b4:	00451107          	flh	ft2,4(a0)
800002b8:	00651683          	lh	a3,6(a0)
800002bc:	c4001553          	fcvt.w.h	a0,ft0,rtz
800002c0:	001015f3          	fsflags	a1,zero
800002c4:	00000613          	li	a2,0
800002c8:	2ad51463          	bne	a0,a3,80000570 <fail>
800002cc:	2ac59263          	bne	a1,a2,80000570 <fail>

800002d0 <test_9>:
800002d0:	00900193          	li	gp,9
800002d4:	00002517          	auipc	a0,0x2
800002d8:	d7250513          	addi	a0,a0,-654 # 80002046 <test_9_data>
800002dc:	00051007          	flh	ft0,0(a0)
800002e0:	00251087          	flh	ft1,2(a0)
800002e4:	00451107          	flh	ft2,4(a0)
800002e8:	00651683          	lh	a3,6(a0)
800002ec:	c4001553          	fcvt.w.h	a0,ft0,rtz
800002f0:	001015f3          	fsflags	a1,zero
800002f4:	00000613          	li	a2,0
800002f8:	26d51c63          	bne	a0,a3,80000570 <fail>
800002fc:	26c59a63          	bne	a1,a2,80000570 <fail>

80000300 <test_12>:
80000300:	00c00193          	li	gp,12
80000304:	00002517          	auipc	a0,0x2
80000308:	d4c50513          	addi	a0,a0,-692 # 80002050 <test_12_data>
8000030c:	00051007          	flh	ft0,0(a0)
80000310:	00251087          	flh	ft1,2(a0)
80000314:	00451107          	flh	ft2,4(a0)
80000318:	00651683          	lh	a3,6(a0)
8000031c:	c4101553          	fcvt.wu.h	a0,ft0,rtz
80000320:	001015f3          	fsflags	a1,zero
80000324:	01000613          	li	a2,16
80000328:	24d51463          	bne	a0,a3,80000570 <fail>
8000032c:	24c59263          	bne	a1,a2,80000570 <fail>

80000330 <test_13>:
80000330:	00d00193          	li	gp,13
80000334:	00002517          	auipc	a0,0x2
80000338:	d2650513          	addi	a0,a0,-730 # 8000205a <test_13_data>
8000033c:	00051007          	flh	ft0,0(a0)
80000340:	00251087          	flh	ft1,2(a0)
80000344:	00451107          	flh	ft2,4(a0)
80000348:	00651683          	lh	a3,6(a0)
8000034c:	c4101553          	fcvt.wu.h	a0,ft0,rtz
80000350:	001015f3          	fsflags	a1,zero
80000354:	01000613          	li	a2,16
80000358:	20d51c63          	bne	a0,a3,80000570 <fail>
8000035c:	20c59a63          	bne	a1,a2,80000570 <fail>

80000360 <test_14>:
80000360:	00e00193          	li	gp,14
80000364:	00002517          	auipc	a0,0x2
80000368:	d0050513          	addi	a0,a0,-768 # 80002064 <test_14_data>
8000036c:	00051007          	flh	ft0,0(a0)
80000370:	00251087          	flh	ft1,2(a0)
80000374:	00451107          	flh	ft2,4(a0)
80000378:	00651683          	lh	a3,6(a0)
8000037c:	c4101553          	fcvt.wu.h	a0,ft0,rtz
80000380:	001015f3          	fsflags	a1,zero
80000384:	00100613          	li	a2,1
80000388:	1ed51463          	bne	a0,a3,80000570 <fail>
8000038c:	1ec59263          	bne	a1,a2,80000570 <fail>

80000390 <test_15>:
80000390:	00f00193          	li	gp,15
80000394:	00002517          	auipc	a0,0x2
80000398:	cda50513          	addi	a0,a0,-806 # 8000206e <test_15_data>
8000039c:	00051007          	flh	ft0,0(a0)
800003a0:	00251087          	flh	ft1,2(a0)
800003a4:	00451107          	flh	ft2,4(a0)
800003a8:	00651683          	lh	a3,6(a0)
800003ac:	c4101553          	fcvt.wu.h	a0,ft0,rtz
800003b0:	001015f3          	fsflags	a1,zero
800003b4:	00100613          	li	a2,1
800003b8:	1ad51c63          	bne	a0,a3,80000570 <fail>
800003bc:	1ac59a63          	bne	a1,a2,80000570 <fail>

800003c0 <test_16>:
800003c0:	01000193          	li	gp,16
800003c4:	00002517          	auipc	a0,0x2
800003c8:	cb450513          	addi	a0,a0,-844 # 80002078 <test_16_data>
800003cc:	00051007          	flh	ft0,0(a0)
800003d0:	00251087          	flh	ft1,2(a0)
800003d4:	00451107          	flh	ft2,4(a0)
800003d8:	00651683          	lh	a3,6(a0)
800003dc:	c4101553          	fcvt.wu.h	a0,ft0,rtz
800003e0:	001015f3          	fsflags	a1,zero
800003e4:	00000613          	li	a2,0
800003e8:	18d51463          	bne	a0,a3,80000570 <fail>
800003ec:	18c59263          	bne	a1,a2,80000570 <fail>

800003f0 <test_17>:
800003f0:	01100193          	li	gp,17
800003f4:	00002517          	auipc	a0,0x2
800003f8:	c8e50513          	addi	a0,a0,-882 # 80002082 <test_17_data>
800003fc:	00051007          	flh	ft0,0(a0)
80000400:	00251087          	flh	ft1,2(a0)
80000404:	00451107          	flh	ft2,4(a0)
80000408:	00651683          	lh	a3,6(a0)
8000040c:	c4101553          	fcvt.wu.h	a0,ft0,rtz
80000410:	001015f3          	fsflags	a1,zero
80000414:	00100613          	li	a2,1
80000418:	14d51c63          	bne	a0,a3,80000570 <fail>
8000041c:	14c59a63          	bne	a1,a2,80000570 <fail>

80000420 <test_18>:
80000420:	01200193          	li	gp,18
80000424:	00002517          	auipc	a0,0x2
80000428:	c6850513          	addi	a0,a0,-920 # 8000208c <test_18_data>
8000042c:	00051007          	flh	ft0,0(a0)
80000430:	00251087          	flh	ft1,2(a0)
80000434:	00451107          	flh	ft2,4(a0)
80000438:	00651683          	lh	a3,6(a0)
8000043c:	c4101553          	fcvt.wu.h	a0,ft0,rtz
80000440:	001015f3          	fsflags	a1,zero
80000444:	01000613          	li	a2,16
80000448:	12d51463          	bne	a0,a3,80000570 <fail>
8000044c:	12c59263          	bne	a1,a2,80000570 <fail>

80000450 <test_19>:
80000450:	01300193          	li	gp,19
80000454:	00002517          	auipc	a0,0x2
80000458:	c4250513          	addi	a0,a0,-958 # 80002096 <test_19_data>
8000045c:	00051007          	flh	ft0,0(a0)
80000460:	00251087          	flh	ft1,2(a0)
80000464:	00451107          	flh	ft2,4(a0)
80000468:	00651683          	lh	a3,6(a0)
8000046c:	c4101553          	fcvt.wu.h	a0,ft0,rtz
80000470:	001015f3          	fsflags	a1,zero
80000474:	00000613          	li	a2,0
80000478:	0ed51c63          	bne	a0,a3,80000570 <fail>
8000047c:	0ec59a63          	bne	a1,a2,80000570 <fail>

80000480 <test_42>:
80000480:	02a00193          	li	gp,42
80000484:	00002097          	auipc	ra,0x2
80000488:	c1c08093          	addi	ra,ra,-996 # 800020a0 <begin_signature>
8000048c:	0000a087          	flw	ft1,0(ra)
80000490:	c400f0d3          	fcvt.w.h	ra,ft1
80000494:	800003b7          	lui	t2,0x80000
80000498:	fff38393          	addi	t2,t2,-1 # 7fffffff <_end+0xffffdf4f>
8000049c:	0c709a63          	bne	ra,t2,80000570 <fail>

800004a0 <test_43>:
800004a0:	02b00193          	li	gp,43
800004a4:	00002097          	auipc	ra,0x2
800004a8:	bfc08093          	addi	ra,ra,-1028 # 800020a0 <begin_signature>
800004ac:	0080a087          	flw	ft1,8(ra)
800004b0:	c400f0d3          	fcvt.w.h	ra,ft1
800004b4:	800003b7          	lui	t2,0x80000
800004b8:	0a709c63          	bne	ra,t2,80000570 <fail>

800004bc <test_52>:
800004bc:	03400193          	li	gp,52
800004c0:	00002097          	auipc	ra,0x2
800004c4:	be008093          	addi	ra,ra,-1056 # 800020a0 <begin_signature>
800004c8:	0040a087          	flw	ft1,4(ra)
800004cc:	c400f0d3          	fcvt.w.h	ra,ft1
800004d0:	800003b7          	lui	t2,0x80000
800004d4:	fff38393          	addi	t2,t2,-1 # 7fffffff <_end+0xffffdf4f>
800004d8:	08709c63          	bne	ra,t2,80000570 <fail>

800004dc <test_53>:
800004dc:	03500193          	li	gp,53
800004e0:	00002097          	auipc	ra,0x2
800004e4:	bc008093          	addi	ra,ra,-1088 # 800020a0 <begin_signature>
800004e8:	00c0a087          	flw	ft1,12(ra)
800004ec:	c400f0d3          	fcvt.w.h	ra,ft1
800004f0:	800003b7          	lui	t2,0x80000
800004f4:	fff38393          	addi	t2,t2,-1 # 7fffffff <_end+0xffffdf4f>
800004f8:	06709c63          	bne	ra,t2,80000570 <fail>

800004fc <test_62>:
800004fc:	03e00193          	li	gp,62
80000500:	00002097          	auipc	ra,0x2
80000504:	ba008093          	addi	ra,ra,-1120 # 800020a0 <begin_signature>
80000508:	0000a087          	flw	ft1,0(ra)
8000050c:	c410f0d3          	fcvt.wu.h	ra,ft1
80000510:	fff00393          	li	t2,-1
80000514:	04709e63          	bne	ra,t2,80000570 <fail>

80000518 <test_63>:
80000518:	03f00193          	li	gp,63
8000051c:	00002097          	auipc	ra,0x2
80000520:	b8408093          	addi	ra,ra,-1148 # 800020a0 <begin_signature>
80000524:	0040a087          	flw	ft1,4(ra)
80000528:	c410f0d3          	fcvt.wu.h	ra,ft1
8000052c:	fff00393          	li	t2,-1
80000530:	04709063          	bne	ra,t2,80000570 <fail>

80000534 <test_64>:
80000534:	04000193          	li	gp,64
80000538:	00002097          	auipc	ra,0x2
8000053c:	b6808093          	addi	ra,ra,-1176 # 800020a0 <begin_signature>
80000540:	0080a087          	flw	ft1,8(ra)
80000544:	c410f0d3          	fcvt.wu.h	ra,ft1
80000548:	00000393          	li	t2,0
8000054c:	02709263          	bne	ra,t2,80000570 <fail>

80000550 <test_65>:
80000550:	04100193          	li	gp,65
80000554:	00002097          	auipc	ra,0x2
80000558:	b4c08093          	addi	ra,ra,-1204 # 800020a0 <begin_signature>
8000055c:	00c0a087          	flw	ft1,12(ra)
80000560:	c410f0d3          	fcvt.wu.h	ra,ft1
80000564:	fff00393          	li	t2,-1
80000568:	00709463          	bne	ra,t2,80000570 <fail>
8000056c:	02301063          	bne	zero,gp,8000058c <pass>

80000570 <fail>:
80000570:	0ff0000f          	fence
80000574:	00018063          	beqz	gp,80000574 <fail+0x4>
80000578:	00119193          	slli	gp,gp,0x1
8000057c:	0011e193          	ori	gp,gp,1
80000580:	05d00893          	li	a7,93
80000584:	00018513          	mv	a0,gp
80000588:	00000073          	ecall

8000058c <pass>:
8000058c:	0ff0000f          	fence
80000590:	00100193          	li	gp,1
80000594:	05d00893          	li	a7,93
80000598:	00000513          	li	a0,0
8000059c:	00000073          	ecall
800005a0:	c0001073          	unimp
800005a4:	0000                	.2byte	0x0
800005a6:	0000                	.2byte	0x0
800005a8:	0000                	.2byte	0x0
800005aa:	0000                	.2byte	0x0
800005ac:	0000                	.2byte	0x0
800005ae:	0000                	.2byte	0x0
800005b0:	0000                	.2byte	0x0
800005b2:	0000                	.2byte	0x0
800005b4:	0000                	.2byte	0x0
800005b6:	0000                	.2byte	0x0
800005b8:	0000                	.2byte	0x0
800005ba:	0000                	.2byte	0x0

Дизассемблирование раздела .data:

80002000 <test_2_data>:
80002000:	bc66                	.2byte	0xbc66
80002002:	0000                	.2byte	0x0
80002004:	0000                	.2byte	0x0
80002006:	ffff                	.2byte	0xffff
80002008:	ffff                	.2byte	0xffff

8000200a <test_3_data>:
8000200a:	bc00                	.2byte	0xbc00
8000200c:	0000                	.2byte	0x0
8000200e:	0000                	.2byte	0x0
80002010:	ffff                	.2byte	0xffff
80002012:	ffff                	.2byte	0xffff

80002014 <test_4_data>:
80002014:	0000bb33          	sltu	s6,ra,zero
80002018:	0000                	.2byte	0x0
8000201a:	0000                	.2byte	0x0
8000201c:	0000                	.2byte	0x0

8000201e <test_5_data>:
8000201e:	00003b33          	snez	s6,zero
80002022:	0000                	.2byte	0x0
80002024:	0000                	.2byte	0x0
80002026:	0000                	.2byte	0x0

80002028 <test_6_data>:
80002028:	3c00                	.2byte	0x3c00
8000202a:	0000                	.2byte	0x0
8000202c:	0000                	.2byte	0x0
8000202e:	0001                	.2byte	0x1
80002030:	0000                	.2byte	0x0

80002032 <test_7_data>:
80002032:	3c66                	.2byte	0x3c66
80002034:	0000                	.2byte	0x0
80002036:	0000                	.2byte	0x0
80002038:	0001                	.2byte	0x1
8000203a:	0000                	.2byte	0x0

8000203c <test_8_data>:
8000203c:	0000e803          	.4byte	0xe803
80002040:	0000                	.2byte	0x0
80002042:	f7fa                	.2byte	0xf7fa
80002044:	ffff                	.2byte	0xffff

80002046 <test_9_data>:
80002046:	00006803          	.4byte	0x6803
8000204a:	0000                	.2byte	0x0
8000204c:	0806                	.2byte	0x806
8000204e:	0000                	.2byte	0x0

80002050 <test_12_data>:
80002050:	c200                	.2byte	0xc200
80002052:	0000                	.2byte	0x0
80002054:	0000                	.2byte	0x0
80002056:	0000                	.2byte	0x0
80002058:	0000                	.2byte	0x0

8000205a <test_13_data>:
8000205a:	bc00                	.2byte	0xbc00
8000205c:	0000                	.2byte	0x0
8000205e:	0000                	.2byte	0x0
80002060:	0000                	.2byte	0x0
80002062:	0000                	.2byte	0x0

80002064 <test_14_data>:
80002064:	0000bb33          	sltu	s6,ra,zero
80002068:	0000                	.2byte	0x0
8000206a:	0000                	.2byte	0x0
8000206c:	0000                	.2byte	0x0

8000206e <test_15_data>:
8000206e:	00003b33          	snez	s6,zero
80002072:	0000                	.2byte	0x0
80002074:	0000                	.2byte	0x0
80002076:	0000                	.2byte	0x0

80002078 <test_16_data>:
80002078:	3c00                	.2byte	0x3c00
8000207a:	0000                	.2byte	0x0
8000207c:	0000                	.2byte	0x0
8000207e:	0001                	.2byte	0x1
80002080:	0000                	.2byte	0x0

80002082 <test_17_data>:
80002082:	3c66                	.2byte	0x3c66
80002084:	0000                	.2byte	0x0
80002086:	0000                	.2byte	0x0
80002088:	0001                	.2byte	0x1
8000208a:	0000                	.2byte	0x0

8000208c <test_18_data>:
8000208c:	0000e803          	.4byte	0xe803
80002090:	0000                	.2byte	0x0
80002092:	0000                	.2byte	0x0
80002094:	0000                	.2byte	0x0

80002096 <test_19_data>:
80002096:	00006803          	.4byte	0x6803
8000209a:	0000                	.2byte	0x0
8000209c:	0806                	.2byte	0x806
8000209e:	0000                	.2byte	0x0

800020a0 <begin_signature>:
800020a0:	ffff                	.2byte	0xffff
800020a2:	ffff                	.2byte	0xffff
800020a4:	7fff                	.2byte	0x7fff
800020a6:	ffff                	.2byte	0xffff
800020a8:	fc00                	.2byte	0xfc00
800020aa:	ffff                	.2byte	0xffff
800020ac:	7c00                	.2byte	0x7c00
800020ae:	ffff                	.2byte	0xffff
