
rv32uzfh-p-fcmp:     формат файла elf32-littleriscv


Дизассемблирование раздела .text.init:

80000000 <_start>:
80000000:	0480006f          	j	80000048 <reset_vector>

80000004 <trap_vector>:
80000004:	34202f73          	csrr	t5,mcause
80000008:	00800f93          	li	t6,8
8000000c:	03ff0863          	beq	t5,t6,8000003c <write_tohost>
80000010:	00900f93          	li	t6,9
80000014:	03ff0463          	beq	t5,t6,8000003c <write_tohost>
80000018:	00b00f93          	li	t6,11
8000001c:	03ff0063          	beq	t5,t6,8000003c <write_tohost>
80000020:	00000f13          	li	t5,0
80000024:	000f0463          	beqz	t5,8000002c <trap_vector+0x28>
80000028:	000f0067          	jr	t5
8000002c:	34202f73          	csrr	t5,mcause
80000030:	000f5463          	bgez	t5,80000038 <handle_exception>
80000034:	0040006f          	j	80000038 <handle_exception>

80000038 <handle_exception>:
80000038:	5391e193          	ori	gp,gp,1337

8000003c <write_tohost>:
8000003c:	00001f17          	auipc	t5,0x1
80000040:	fc3f2223          	sw	gp,-60(t5) # 80001000 <tohost>
80000044:	ff9ff06f          	j	8000003c <write_tohost>

80000048 <reset_vector>:
80000048:	00000093          	li	ra,0
8000004c:	00000113          	li	sp,0
80000050:	00000193          	li	gp,0
80000054:	00000213          	li	tp,0
80000058:	00000293          	li	t0,0
8000005c:	00000313          	li	t1,0
80000060:	00000393          	li	t2,0
80000064:	00000413          	li	s0,0
80000068:	00000493          	li	s1,0
8000006c:	00000513          	li	a0,0
80000070:	00000593          	li	a1,0
80000074:	00000613          	li	a2,0
80000078:	00000693          	li	a3,0
8000007c:	00000713          	li	a4,0
80000080:	00000793          	li	a5,0
80000084:	00000813          	li	a6,0
80000088:	00000893          	li	a7,0
8000008c:	00000913          	li	s2,0
80000090:	00000993          	li	s3,0
80000094:	00000a13          	li	s4,0
80000098:	00000a93          	li	s5,0
8000009c:	00000b13          	li	s6,0
800000a0:	00000b93          	li	s7,0
800000a4:	00000c13          	li	s8,0
800000a8:	00000c93          	li	s9,0
800000ac:	00000d13          	li	s10,0
800000b0:	00000d93          	li	s11,0
800000b4:	00000e13          	li	t3,0
800000b8:	00000e93          	li	t4,0
800000bc:	00000f13          	li	t5,0
800000c0:	00000f93          	li	t6,0
800000c4:	f1402573          	csrr	a0,mhartid
800000c8:	00051063          	bnez	a0,800000c8 <reset_vector+0x80>
800000cc:	00000297          	auipc	t0,0x0
800000d0:	01028293          	addi	t0,t0,16 # 800000dc <reset_vector+0x94>
800000d4:	30529073          	csrw	mtvec,t0
800000d8:	18005073          	csrwi	satp,0
800000dc:	00000297          	auipc	t0,0x0
800000e0:	02028293          	addi	t0,t0,32 # 800000fc <reset_vector+0xb4>
800000e4:	30529073          	csrw	mtvec,t0
800000e8:	800002b7          	lui	t0,0x80000
800000ec:	fff28293          	addi	t0,t0,-1 # 7fffffff <_end+0xffffdfcf>
800000f0:	3b029073          	csrw	pmpaddr0,t0
800000f4:	01f00293          	li	t0,31
800000f8:	3a029073          	csrw	pmpcfg0,t0
800000fc:	30405073          	csrwi	mie,0
80000100:	00000297          	auipc	t0,0x0
80000104:	01428293          	addi	t0,t0,20 # 80000114 <reset_vector+0xcc>
80000108:	30529073          	csrw	mtvec,t0
8000010c:	30205073          	csrwi	medeleg,0
80000110:	30305073          	csrwi	mideleg,0
80000114:	00000193          	li	gp,0
80000118:	00000297          	auipc	t0,0x0
8000011c:	eec28293          	addi	t0,t0,-276 # 80000004 <trap_vector>
80000120:	30529073          	csrw	mtvec,t0
80000124:	00100513          	li	a0,1
80000128:	01f51513          	slli	a0,a0,0x1f
8000012c:	00054c63          	bltz	a0,80000144 <reset_vector+0xfc>
80000130:	0ff0000f          	fence
80000134:	00100193          	li	gp,1
80000138:	05d00893          	li	a7,93
8000013c:	00000513          	li	a0,0
80000140:	00000073          	ecall
80000144:	00000293          	li	t0,0
80000148:	00028a63          	beqz	t0,8000015c <reset_vector+0x114>
8000014c:	10529073          	csrw	stvec,t0
80000150:	0000b2b7          	lui	t0,0xb
80000154:	10928293          	addi	t0,t0,265 # b109 <_start-0x7fff4ef7>
80000158:	30229073          	csrw	medeleg,t0
8000015c:	30005073          	csrwi	mstatus,0
80000160:	00002537          	lui	a0,0x2
80000164:	30052073          	csrs	mstatus,a0
80000168:	00305073          	csrwi	fcsr,0
8000016c:	00000297          	auipc	t0,0x0
80000170:	01428293          	addi	t0,t0,20 # 80000180 <test_2>
80000174:	34129073          	csrw	mepc,t0
80000178:	f1402573          	csrr	a0,mhartid
8000017c:	30200073          	mret

80000180 <test_2>:
80000180:	00200193          	li	gp,2
80000184:	00002517          	auipc	a0,0x2
80000188:	e7c50513          	addi	a0,a0,-388 # 80002000 <test_2_data>
8000018c:	00051007          	flh	ft0,0(a0)
80000190:	00251087          	flh	ft1,2(a0)
80000194:	00451107          	flh	ft2,4(a0)
80000198:	00651683          	lh	a3,6(a0)
8000019c:	a4102553          	feq.h	a0,ft0,ft1
800001a0:	001015f3          	fsflags	a1,zero
800001a4:	00000613          	li	a2,0
800001a8:	0ed51e63          	bne	a0,a3,800002a4 <fail>
800001ac:	0ec59c63          	bne	a1,a2,800002a4 <fail>

800001b0 <test_3>:
800001b0:	00300193          	li	gp,3
800001b4:	00002517          	auipc	a0,0x2
800001b8:	e5450513          	addi	a0,a0,-428 # 80002008 <test_3_data>
800001bc:	00051007          	flh	ft0,0(a0)
800001c0:	00251087          	flh	ft1,2(a0)
800001c4:	00451107          	flh	ft2,4(a0)
800001c8:	00651683          	lh	a3,6(a0)
800001cc:	a4100553          	fle.h	a0,ft0,ft1
800001d0:	001015f3          	fsflags	a1,zero
800001d4:	00000613          	li	a2,0
800001d8:	0cd51663          	bne	a0,a3,800002a4 <fail>
800001dc:	0cc59463          	bne	a1,a2,800002a4 <fail>

800001e0 <test_4>:
800001e0:	00400193          	li	gp,4
800001e4:	00002517          	auipc	a0,0x2
800001e8:	e2c50513          	addi	a0,a0,-468 # 80002010 <test_4_data>
800001ec:	00051007          	flh	ft0,0(a0)
800001f0:	00251087          	flh	ft1,2(a0)
800001f4:	00451107          	flh	ft2,4(a0)
800001f8:	00651683          	lh	a3,6(a0)
800001fc:	a4101553          	flt.h	a0,ft0,ft1
80000200:	001015f3          	fsflags	a1,zero
80000204:	00000613          	li	a2,0
80000208:	08d51e63          	bne	a0,a3,800002a4 <fail>
8000020c:	08c59c63          	bne	a1,a2,800002a4 <fail>

80000210 <test_5>:
80000210:	00500193          	li	gp,5
80000214:	00002517          	auipc	a0,0x2
80000218:	e0450513          	addi	a0,a0,-508 # 80002018 <test_5_data>
8000021c:	00051007          	flh	ft0,0(a0)
80000220:	00251087          	flh	ft1,2(a0)
80000224:	00451107          	flh	ft2,4(a0)
80000228:	00651683          	lh	a3,6(a0)
8000022c:	a4102553          	feq.h	a0,ft0,ft1
80000230:	001015f3          	fsflags	a1,zero
80000234:	00000613          	li	a2,0
80000238:	06d51663          	bne	a0,a3,800002a4 <fail>
8000023c:	06c59463          	bne	a1,a2,800002a4 <fail>

80000240 <test_6>:
80000240:	00600193          	li	gp,6
80000244:	00002517          	auipc	a0,0x2
80000248:	ddc50513          	addi	a0,a0,-548 # 80002020 <test_6_data>
8000024c:	00051007          	flh	ft0,0(a0)
80000250:	00251087          	flh	ft1,2(a0)
80000254:	00451107          	flh	ft2,4(a0)
80000258:	00651683          	lh	a3,6(a0)
8000025c:	a4100553          	fle.h	a0,ft0,ft1
80000260:	001015f3          	fsflags	a1,zero
80000264:	00000613          	li	a2,0
80000268:	02d51e63          	bne	a0,a3,800002a4 <fail>
8000026c:	02c59c63          	bne	a1,a2,800002a4 <fail>

80000270 <test_7>:
80000270:	00700193          	li	gp,7
80000274:	00002517          	auipc	a0,0x2
80000278:	db450513          	addi	a0,a0,-588 # 80002028 <test_7_data>
8000027c:	00051007          	flh	ft0,0(a0)
80000280:	00251087          	flh	ft1,2(a0)
80000284:	00451107          	flh	ft2,4(a0)
80000288:	00651683          	lh	a3,6(a0)
8000028c:	a4101553          	flt.h	a0,ft0,ft1
80000290:	001015f3          	fsflags	a1,zero
80000294:	00000613          	li	a2,0
80000298:	00d51663          	bne	a0,a3,800002a4 <fail>
8000029c:	00c59463          	bne	a1,a2,800002a4 <fail>
800002a0:	02301063          	bne	zero,gp,800002c0 <pass>

800002a4 <fail>:
800002a4:	0ff0000f          	fence
800002a8:	00018063          	beqz	gp,800002a8 <fail+0x4>
800002ac:	00119193          	slli	gp,gp,0x1
800002b0:	0011e193          	ori	gp,gp,1
800002b4:	05d00893          	li	a7,93
800002b8:	00018513          	mv	a0,gp
800002bc:	00000073          	ecall

800002c0 <pass>:
800002c0:	0ff0000f          	fence
800002c4:	00100193          	li	gp,1
800002c8:	05d00893          	li	a7,93
800002cc:	00000513          	li	a0,0
800002d0:	00000073          	ecall
800002d4:	c0001073          	unimp
800002d8:	0000                	.2byte	0x0
800002da:	0000                	.2byte	0x0
800002dc:	0000                	.2byte	0x0
800002de:	0000                	.2byte	0x0
800002e0:	0000                	.2byte	0x0
800002e2:	0000                	.2byte	0x0
800002e4:	0000                	.2byte	0x0
800002e6:	0000                	.2byte	0x0
800002e8:	0000                	.2byte	0x0
800002ea:	0000                	.2byte	0x0
800002ec:	0000                	.2byte	0x0
800002ee:	0000                	.2byte	0x0
800002f0:	0000                	.2byte	0x0
800002f2:	0000                	.2byte	0x0
800002f4:	0000                	.2byte	0x0
800002f6:	0000                	.2byte	0x0
800002f8:	0000                	.2byte	0x0
800002fa:	0000                	.2byte	0x0

Дизассемблирование раздела .data:

80002000 <test_2_data>:
80002000:	bd71                	.2byte	0xbd71
80002002:	bd71                	.2byte	0xbd71
80002004:	0000                	.2byte	0x0
80002006:	0001                	.2byte	0x1

80002008 <test_3_data>:
80002008:	bd71                	.2byte	0xbd71
8000200a:	bd71                	.2byte	0xbd71
8000200c:	0000                	.2byte	0x0
8000200e:	0001                	.2byte	0x1

80002010 <test_4_data>:
80002010:	bd71                	.2byte	0xbd71
80002012:	bd71                	.2byte	0xbd71
80002014:	0000                	.2byte	0x0
80002016:	0000                	.2byte	0x0

80002018 <test_5_data>:
80002018:	bd71bd7b          	.4byte	0xbd71bd7b
8000201c:	0000                	.2byte	0x0
8000201e:	0000                	.2byte	0x0

80002020 <test_6_data>:
80002020:	bd71bd7b          	.4byte	0xbd71bd7b
80002024:	0000                	.2byte	0x0
80002026:	0001                	.2byte	0x1

80002028 <test_7_data>:
80002028:	bd71bd7b          	.4byte	0xbd71bd7b
8000202c:	0000                	.2byte	0x0
8000202e:	0001                	.2byte	0x1
