
rv64uf-v-fcvt_w:     формат файла elf64-littleriscv


Дизассемблирование раздела .text.init:

0000000080000000 <_start>:
    80000000:	00c0006f          	j	8000000c <handle_reset>

0000000080000004 <nmi_vector>:
    80000004:	2bc0206f          	j	800022c0 <wtf>

0000000080000008 <trap_vector>:
    80000008:	2b80206f          	j	800022c0 <wtf>

000000008000000c <handle_reset>:
    8000000c:	00000093          	li	ra,0
    80000010:	00000113          	li	sp,0
    80000014:	00000193          	li	gp,0
    80000018:	00000213          	li	tp,0
    8000001c:	00000293          	li	t0,0
    80000020:	00000313          	li	t1,0
    80000024:	00000393          	li	t2,0
    80000028:	00000413          	li	s0,0
    8000002c:	00000493          	li	s1,0
    80000030:	00000513          	li	a0,0
    80000034:	00000593          	li	a1,0
    80000038:	00000613          	li	a2,0
    8000003c:	00000693          	li	a3,0
    80000040:	00000713          	li	a4,0
    80000044:	00000793          	li	a5,0
    80000048:	00000813          	li	a6,0
    8000004c:	00000893          	li	a7,0
    80000050:	00000913          	li	s2,0
    80000054:	00000993          	li	s3,0
    80000058:	00000a13          	li	s4,0
    8000005c:	00000a93          	li	s5,0
    80000060:	00000b13          	li	s6,0
    80000064:	00000b93          	li	s7,0
    80000068:	00000c13          	li	s8,0
    8000006c:	00000c93          	li	s9,0
    80000070:	00000d13          	li	s10,0
    80000074:	00000d93          	li	s11,0
    80000078:	00000e13          	li	t3,0
    8000007c:	00000e93          	li	t4,0
    80000080:	00000f13          	li	t5,0
    80000084:	00000f93          	li	t6,0
    80000088:	00000297          	auipc	t0,0x0
    8000008c:	f8028293          	addi	t0,t0,-128 # 80000008 <trap_vector>
    80000090:	30529073          	csrw	mtvec,t0
    80000094:	0000b117          	auipc	sp,0xb
    80000098:	e4c10113          	addi	sp,sp,-436 # 8000aee0 <freelist_head+0xed8>
    8000009c:	f14022f3          	csrr	t0,mhartid
    800000a0:	00c29293          	slli	t0,t0,0xc
    800000a4:	00510133          	add	sp,sp,t0
    800000a8:	34011073          	csrw	mscratch,sp
    800000ac:	0d9020ef          	jal	ra,80002984 <extra_boot>
    800000b0:	00003517          	auipc	a0,0x3
    800000b4:	8d850513          	addi	a0,a0,-1832 # 80002988 <userstart>
    800000b8:	6d00206f          	j	80002788 <vm_boot>

00000000800000bc <pop_tf>:
    800000bc:	10853283          	ld	t0,264(a0)
    800000c0:	14129073          	csrw	sepc,t0
    800000c4:	00853083          	ld	ra,8(a0)
    800000c8:	01053103          	ld	sp,16(a0)
    800000cc:	01853183          	ld	gp,24(a0)
    800000d0:	02053203          	ld	tp,32(a0)
    800000d4:	02853283          	ld	t0,40(a0)
    800000d8:	03053303          	ld	t1,48(a0)
    800000dc:	03853383          	ld	t2,56(a0)
    800000e0:	04053403          	ld	s0,64(a0)
    800000e4:	04853483          	ld	s1,72(a0)
    800000e8:	05853583          	ld	a1,88(a0)
    800000ec:	06053603          	ld	a2,96(a0)
    800000f0:	06853683          	ld	a3,104(a0)
    800000f4:	07053703          	ld	a4,112(a0)
    800000f8:	07853783          	ld	a5,120(a0)
    800000fc:	08053803          	ld	a6,128(a0)
    80000100:	08853883          	ld	a7,136(a0)
    80000104:	09053903          	ld	s2,144(a0)
    80000108:	09853983          	ld	s3,152(a0)
    8000010c:	0a053a03          	ld	s4,160(a0)
    80000110:	0a853a83          	ld	s5,168(a0)
    80000114:	0b053b03          	ld	s6,176(a0)
    80000118:	0b853b83          	ld	s7,184(a0)
    8000011c:	0c053c03          	ld	s8,192(a0)
    80000120:	0c853c83          	ld	s9,200(a0)
    80000124:	0d053d03          	ld	s10,208(a0)
    80000128:	0d853d83          	ld	s11,216(a0)
    8000012c:	0e053e03          	ld	t3,224(a0)
    80000130:	0e853e83          	ld	t4,232(a0)
    80000134:	0f053f03          	ld	t5,240(a0)
    80000138:	0f853f83          	ld	t6,248(a0)
    8000013c:	05053503          	ld	a0,80(a0)
    80000140:	10200073          	sret

0000000080000144 <trap_entry>:
    80000144:	14011173          	csrrw	sp,sscratch,sp
    80000148:	00113423          	sd	ra,8(sp)
    8000014c:	00313c23          	sd	gp,24(sp)
    80000150:	02413023          	sd	tp,32(sp)
    80000154:	02513423          	sd	t0,40(sp)
    80000158:	02613823          	sd	t1,48(sp)
    8000015c:	02713c23          	sd	t2,56(sp)
    80000160:	04813023          	sd	s0,64(sp)
    80000164:	04913423          	sd	s1,72(sp)
    80000168:	04a13823          	sd	a0,80(sp)
    8000016c:	04b13c23          	sd	a1,88(sp)
    80000170:	06c13023          	sd	a2,96(sp)
    80000174:	06d13423          	sd	a3,104(sp)
    80000178:	06e13823          	sd	a4,112(sp)
    8000017c:	06f13c23          	sd	a5,120(sp)
    80000180:	09013023          	sd	a6,128(sp)
    80000184:	09113423          	sd	a7,136(sp)
    80000188:	09213823          	sd	s2,144(sp)
    8000018c:	09313c23          	sd	s3,152(sp)
    80000190:	0b413023          	sd	s4,160(sp)
    80000194:	0b513423          	sd	s5,168(sp)
    80000198:	0b613823          	sd	s6,176(sp)
    8000019c:	0b713c23          	sd	s7,184(sp)
    800001a0:	0d813023          	sd	s8,192(sp)
    800001a4:	0d913423          	sd	s9,200(sp)
    800001a8:	0da13823          	sd	s10,208(sp)
    800001ac:	0db13c23          	sd	s11,216(sp)
    800001b0:	0fc13023          	sd	t3,224(sp)
    800001b4:	0fd13423          	sd	t4,232(sp)
    800001b8:	0fe13823          	sd	t5,240(sp)
    800001bc:	0ff13c23          	sd	t6,248(sp)
    800001c0:	140112f3          	csrrw	t0,sscratch,sp
    800001c4:	00513823          	sd	t0,16(sp)
    800001c8:	100022f3          	csrr	t0,sstatus
    800001cc:	10513023          	sd	t0,256(sp)
    800001d0:	141022f3          	csrr	t0,sepc
    800001d4:	10513423          	sd	t0,264(sp)
    800001d8:	143022f3          	csrr	t0,stval
    800001dc:	10513823          	sd	t0,272(sp)
    800001e0:	142022f3          	csrr	t0,scause
    800001e4:	10513c23          	sd	t0,280(sp)
    800001e8:	00010513          	mv	a0,sp
    800001ec:	32c0206f          	j	80002518 <handle_trap>

Дизассемблирование раздела .text:

0000000080002000 <memcpy>:
    80002000:	00b567b3          	or	a5,a0,a1
    80002004:	00c7e7b3          	or	a5,a5,a2
    80002008:	0077f793          	andi	a5,a5,7
    8000200c:	00c506b3          	add	a3,a0,a2
    80002010:	02078463          	beqz	a5,80002038 <memcpy+0x38>
    80002014:	00c58633          	add	a2,a1,a2
    80002018:	00050793          	mv	a5,a0
    8000201c:	02d57e63          	bgeu	a0,a3,80002058 <memcpy+0x58>
    80002020:	0005c703          	lbu	a4,0(a1)
    80002024:	00158593          	addi	a1,a1,1
    80002028:	00178793          	addi	a5,a5,1
    8000202c:	fee78fa3          	sb	a4,-1(a5)
    80002030:	fec598e3          	bne	a1,a2,80002020 <memcpy+0x20>
    80002034:	00008067          	ret
    80002038:	fed57ee3          	bgeu	a0,a3,80002034 <memcpy+0x34>
    8000203c:	00050793          	mv	a5,a0
    80002040:	0005b703          	ld	a4,0(a1)
    80002044:	00878793          	addi	a5,a5,8
    80002048:	00858593          	addi	a1,a1,8
    8000204c:	fee7bc23          	sd	a4,-8(a5)
    80002050:	fed7e8e3          	bltu	a5,a3,80002040 <memcpy+0x40>
    80002054:	00008067          	ret
    80002058:	00008067          	ret

000000008000205c <memset>:
    8000205c:	ff010113          	addi	sp,sp,-16
    80002060:	00c567b3          	or	a5,a0,a2
    80002064:	00813023          	sd	s0,0(sp)
    80002068:	00113423          	sd	ra,8(sp)
    8000206c:	0077f793          	andi	a5,a5,7
    80002070:	00050413          	mv	s0,a0
    80002074:	00c50733          	add	a4,a0,a2
    80002078:	02078263          	beqz	a5,8000209c <memset+0x40>
    8000207c:	00e57663          	bgeu	a0,a4,80002088 <memset+0x2c>
    80002080:	0ff5f593          	zext.b	a1,a1
    80002084:	fd9ff0ef          	jal	ra,8000205c <memset>
    80002088:	00813083          	ld	ra,8(sp)
    8000208c:	00040513          	mv	a0,s0
    80002090:	00013403          	ld	s0,0(sp)
    80002094:	01010113          	addi	sp,sp,16
    80002098:	00008067          	ret
    8000209c:	0ff5f593          	zext.b	a1,a1
    800020a0:	00001797          	auipc	a5,0x1
    800020a4:	0687b783          	ld	a5,104(a5) # 80003108 <pass+0x10>
    800020a8:	02f585b3          	mul	a1,a1,a5
    800020ac:	fce57ee3          	bgeu	a0,a4,80002088 <memset+0x2c>
    800020b0:	00050793          	mv	a5,a0
    800020b4:	00878793          	addi	a5,a5,8
    800020b8:	feb7bc23          	sd	a1,-8(a5)
    800020bc:	fee7ece3          	bltu	a5,a4,800020b4 <memset+0x58>
    800020c0:	00813083          	ld	ra,8(sp)
    800020c4:	00040513          	mv	a0,s0
    800020c8:	00013403          	ld	s0,0(sp)
    800020cc:	01010113          	addi	sp,sp,16
    800020d0:	00008067          	ret

00000000800020d4 <strlen>:
    800020d4:	00054783          	lbu	a5,0(a0)
    800020d8:	00078e63          	beqz	a5,800020f4 <strlen+0x20>
    800020dc:	00050793          	mv	a5,a0
    800020e0:	0017c703          	lbu	a4,1(a5)
    800020e4:	00178793          	addi	a5,a5,1
    800020e8:	fe071ce3          	bnez	a4,800020e0 <strlen+0xc>
    800020ec:	40a78533          	sub	a0,a5,a0
    800020f0:	00008067          	ret
    800020f4:	00000513          	li	a0,0
    800020f8:	00008067          	ret

00000000800020fc <strcmp>:
    800020fc:	00054783          	lbu	a5,0(a0)
    80002100:	00158593          	addi	a1,a1,1
    80002104:	00150513          	addi	a0,a0,1
    80002108:	fff5c703          	lbu	a4,-1(a1)
    8000210c:	00078a63          	beqz	a5,80002120 <strcmp+0x24>
    80002110:	fee786e3          	beq	a5,a4,800020fc <strcmp>
    80002114:	0007851b          	sext.w	a0,a5
    80002118:	40e5053b          	subw	a0,a0,a4
    8000211c:	00008067          	ret
    80002120:	00000513          	li	a0,0
    80002124:	ff5ff06f          	j	80002118 <strcmp+0x1c>

0000000080002128 <memcmp>:
    80002128:	00b567b3          	or	a5,a0,a1
    8000212c:	0077f793          	andi	a5,a5,7
    80002130:	02079e63          	bnez	a5,8000216c <memcmp+0x44>
    80002134:	ff867813          	andi	a6,a2,-8
    80002138:	01050833          	add	a6,a0,a6
    8000213c:	03057863          	bgeu	a0,a6,8000216c <memcmp+0x44>
    80002140:	00050793          	mv	a5,a0
    80002144:	0100006f          	j	80002154 <memcmp+0x2c>
    80002148:	00878793          	addi	a5,a5,8
    8000214c:	00858593          	addi	a1,a1,8
    80002150:	0107f863          	bgeu	a5,a6,80002160 <memcmp+0x38>
    80002154:	0007b683          	ld	a3,0(a5)
    80002158:	0005b703          	ld	a4,0(a1)
    8000215c:	fee686e3          	beq	a3,a4,80002148 <memcmp+0x20>
    80002160:	40a78533          	sub	a0,a5,a0
    80002164:	40a60633          	sub	a2,a2,a0
    80002168:	00078513          	mv	a0,a5
    8000216c:	00c58633          	add	a2,a1,a2
    80002170:	0140006f          	j	80002184 <memcmp+0x5c>
    80002174:	0005c703          	lbu	a4,0(a1)
    80002178:	fff54783          	lbu	a5,-1(a0)
    8000217c:	00158593          	addi	a1,a1,1
    80002180:	00e79a63          	bne	a5,a4,80002194 <memcmp+0x6c>
    80002184:	00150513          	addi	a0,a0,1
    80002188:	fec596e3          	bne	a1,a2,80002174 <memcmp+0x4c>
    8000218c:	00000513          	li	a0,0
    80002190:	00008067          	ret
    80002194:	40e7853b          	subw	a0,a5,a4
    80002198:	00008067          	ret

000000008000219c <strcpy>:
    8000219c:	00050793          	mv	a5,a0
    800021a0:	0005c703          	lbu	a4,0(a1)
    800021a4:	00178793          	addi	a5,a5,1
    800021a8:	00158593          	addi	a1,a1,1
    800021ac:	fee78fa3          	sb	a4,-1(a5)
    800021b0:	fe0718e3          	bnez	a4,800021a0 <strcpy+0x4>
    800021b4:	00008067          	ret

00000000800021b8 <atol>:
    800021b8:	00054703          	lbu	a4,0(a0)
    800021bc:	02000693          	li	a3,32
    800021c0:	00050793          	mv	a5,a0
    800021c4:	00d71863          	bne	a4,a3,800021d4 <atol+0x1c>
    800021c8:	0017c703          	lbu	a4,1(a5)
    800021cc:	00178793          	addi	a5,a5,1
    800021d0:	fed70ce3          	beq	a4,a3,800021c8 <atol+0x10>
    800021d4:	02d00693          	li	a3,45
    800021d8:	06d70063          	beq	a4,a3,80002238 <atol+0x80>
    800021dc:	02b00693          	li	a3,43
    800021e0:	04d70063          	beq	a4,a3,80002220 <atol+0x68>
    800021e4:	0007c683          	lbu	a3,0(a5)
    800021e8:	00000593          	li	a1,0
    800021ec:	04068263          	beqz	a3,80002230 <atol+0x78>
    800021f0:	00000513          	li	a0,0
    800021f4:	00178793          	addi	a5,a5,1
    800021f8:	00251713          	slli	a4,a0,0x2
    800021fc:	fd06861b          	addiw	a2,a3,-48
    80002200:	0007c683          	lbu	a3,0(a5)
    80002204:	00a70733          	add	a4,a4,a0
    80002208:	00171713          	slli	a4,a4,0x1
    8000220c:	00e60533          	add	a0,a2,a4
    80002210:	fe0692e3          	bnez	a3,800021f4 <atol+0x3c>
    80002214:	02058063          	beqz	a1,80002234 <atol+0x7c>
    80002218:	40a00533          	neg	a0,a0
    8000221c:	00008067          	ret
    80002220:	0017c683          	lbu	a3,1(a5)
    80002224:	00000593          	li	a1,0
    80002228:	00178793          	addi	a5,a5,1
    8000222c:	fc0692e3          	bnez	a3,800021f0 <atol+0x38>
    80002230:	00000513          	li	a0,0
    80002234:	00008067          	ret
    80002238:	0017c683          	lbu	a3,1(a5)
    8000223c:	00100593          	li	a1,1
    80002240:	00178793          	addi	a5,a5,1
    80002244:	fa0696e3          	bnez	a3,800021f0 <atol+0x38>
    80002248:	00000513          	li	a0,0
    8000224c:	fe9ff06f          	j	80002234 <atol+0x7c>

0000000080002250 <cputstring>:
    80002250:	00054783          	lbu	a5,0(a0)
    80002254:	04078063          	beqz	a5,80002294 <cputstring+0x44>
    80002258:	10100593          	li	a1,257
    8000225c:	fffff717          	auipc	a4,0xfffff
    80002260:	da470713          	addi	a4,a4,-604 # 80001000 <tohost>
    80002264:	03059593          	slli	a1,a1,0x30
    80002268:	00073603          	ld	a2,0(a4)
    8000226c:	00150513          	addi	a0,a0,1
    80002270:	00b7e6b3          	or	a3,a5,a1
    80002274:	00060a63          	beqz	a2,80002288 <cputstring+0x38>
    80002278:	fffff797          	auipc	a5,0xfffff
    8000227c:	dc07b423          	sd	zero,-568(a5) # 80001040 <fromhost>
    80002280:	00073783          	ld	a5,0(a4)
    80002284:	fe079ae3          	bnez	a5,80002278 <cputstring+0x28>
    80002288:	00d73023          	sd	a3,0(a4)
    8000228c:	00054783          	lbu	a5,0(a0)
    80002290:	fc079ce3          	bnez	a5,80002268 <cputstring+0x18>
    80002294:	00008067          	ret

0000000080002298 <terminate>:
    80002298:	fffff717          	auipc	a4,0xfffff
    8000229c:	d6870713          	addi	a4,a4,-664 # 80001000 <tohost>
    800022a0:	00073783          	ld	a5,0(a4)
    800022a4:	00078a63          	beqz	a5,800022b8 <terminate+0x20>
    800022a8:	fffff797          	auipc	a5,0xfffff
    800022ac:	d807bc23          	sd	zero,-616(a5) # 80001040 <fromhost>
    800022b0:	00073783          	ld	a5,0(a4)
    800022b4:	fe079ae3          	bnez	a5,800022a8 <terminate+0x10>
    800022b8:	00a73023          	sd	a0,0(a4)
    800022bc:	0000006f          	j	800022bc <terminate+0x24>

00000000800022c0 <wtf>:
    800022c0:	ff010113          	addi	sp,sp,-16
    800022c4:	34900513          	li	a0,841
    800022c8:	00113423          	sd	ra,8(sp)
    800022cc:	fcdff0ef          	jal	ra,80002298 <terminate>

00000000800022d0 <printhex>:
    800022d0:	fe010113          	addi	sp,sp,-32
    800022d4:	00810613          	addi	a2,sp,8
    800022d8:	01710793          	addi	a5,sp,23
    800022dc:	00900813          	li	a6,9
    800022e0:	0080006f          	j	800022e8 <printhex+0x18>
    800022e4:	00070793          	mv	a5,a4
    800022e8:	00f57693          	andi	a3,a0,15
    800022ec:	00068713          	mv	a4,a3
    800022f0:	03000593          	li	a1,48
    800022f4:	00d87463          	bgeu	a6,a3,800022fc <printhex+0x2c>
    800022f8:	05700593          	li	a1,87
    800022fc:	00b7073b          	addw	a4,a4,a1
    80002300:	00e78023          	sb	a4,0(a5)
    80002304:	00455513          	srli	a0,a0,0x4
    80002308:	fff78713          	addi	a4,a5,-1
    8000230c:	fcf61ce3          	bne	a2,a5,800022e4 <printhex+0x14>
    80002310:	00814783          	lbu	a5,8(sp)
    80002314:	00010c23          	sb	zero,24(sp)
    80002318:	04078263          	beqz	a5,8000235c <printhex+0x8c>
    8000231c:	10100513          	li	a0,257
    80002320:	00060693          	mv	a3,a2
    80002324:	fffff717          	auipc	a4,0xfffff
    80002328:	cdc70713          	addi	a4,a4,-804 # 80001000 <tohost>
    8000232c:	03051513          	slli	a0,a0,0x30
    80002330:	00073583          	ld	a1,0(a4)
    80002334:	00168693          	addi	a3,a3,1
    80002338:	00a7e633          	or	a2,a5,a0
    8000233c:	00058a63          	beqz	a1,80002350 <printhex+0x80>
    80002340:	fffff797          	auipc	a5,0xfffff
    80002344:	d007b023          	sd	zero,-768(a5) # 80001040 <fromhost>
    80002348:	00073783          	ld	a5,0(a4)
    8000234c:	fe079ae3          	bnez	a5,80002340 <printhex+0x70>
    80002350:	0006c783          	lbu	a5,0(a3)
    80002354:	00c73023          	sd	a2,0(a4)
    80002358:	fc079ce3          	bnez	a5,80002330 <printhex+0x60>
    8000235c:	02010113          	addi	sp,sp,32
    80002360:	00008067          	ret

0000000080002364 <handle_fault>:
    80002364:	ff010113          	addi	sp,sp,-16
    80002368:	fffff837          	lui	a6,0xfffff
    8000236c:	00113423          	sd	ra,8(sp)
    80002370:	01050733          	add	a4,a0,a6
    80002374:	0003e7b7          	lui	a5,0x3e
    80002378:	14f77863          	bgeu	a4,a5,800024c8 <handle_fault+0x164>
    8000237c:	00c55713          	srli	a4,a0,0xc
    80002380:	60070693          	addi	a3,a4,1536
    80002384:	00004617          	auipc	a2,0x4
    80002388:	c7c60613          	addi	a2,a2,-900 # 80006000 <pt>
    8000238c:	00369793          	slli	a5,a3,0x3
    80002390:	00f607b3          	add	a5,a2,a5
    80002394:	0007b783          	ld	a5,0(a5) # 3e000 <_start-0x7ffc2000>
    80002398:	01057533          	and	a0,a0,a6
    8000239c:	0e079063          	bnez	a5,8000247c <handle_fault+0x118>
    800023a0:	00008597          	auipc	a1,0x8
    800023a4:	c6858593          	addi	a1,a1,-920 # 8000a008 <freelist_head>
    800023a8:	0005b803          	ld	a6,0(a1)
    800023ac:	14080263          	beqz	a6,800024f0 <handle_fault+0x18c>
    800023b0:	00883783          	ld	a5,8(a6) # fffffffffffff008 <freelist_head+0xffffffff7fff5000>
    800023b4:	00008897          	auipc	a7,0x8
    800023b8:	c4c8b883          	ld	a7,-948(a7) # 8000a000 <freelist_tail>
    800023bc:	00f5b023          	sd	a5,0(a1)
    800023c0:	0f178e63          	beq	a5,a7,800024bc <handle_fault+0x158>
    800023c4:	00083783          	ld	a5,0(a6)
    800023c8:	00369893          	slli	a7,a3,0x3
    800023cc:	011608b3          	add	a7,a2,a7
    800023d0:	00c7d793          	srli	a5,a5,0xc
    800023d4:	00a79793          	slli	a5,a5,0xa
    800023d8:	0df7e313          	ori	t1,a5,223
    800023dc:	01f7e593          	ori	a1,a5,31
    800023e0:	0068b023          	sd	t1,0(a7)
    800023e4:	12050073          	sfence.vma	a0
    800023e8:	00003797          	auipc	a5,0x3
    800023ec:	c1878793          	addi	a5,a5,-1000 # 80005000 <user_mapping>
    800023f0:	00471713          	slli	a4,a4,0x4
    800023f4:	00e787b3          	add	a5,a5,a4
    800023f8:	0007b703          	ld	a4,0(a5)
    800023fc:	10071463          	bnez	a4,80002504 <handle_fault+0x1a0>
    80002400:	00083703          	ld	a4,0(a6)
    80002404:	000408b7          	lui	a7,0x40
    80002408:	00e7b023          	sd	a4,0(a5)
    8000240c:	00883703          	ld	a4,8(a6)
    80002410:	00e7b423          	sd	a4,8(a5)
    80002414:	1008a8f3          	csrrs	a7,sstatus,a7
    80002418:	ffe007b7          	lui	a5,0xffe00
    8000241c:	00f507b3          	add	a5,a0,a5
    80002420:	00001837          	lui	a6,0x1
    80002424:	00050713          	mv	a4,a0
    80002428:	01078833          	add	a6,a5,a6
    8000242c:	0007bf03          	ld	t5,0(a5) # ffffffffffe00000 <freelist_head+0xffffffff7fdf5ff8>
    80002430:	0087be83          	ld	t4,8(a5)
    80002434:	0107be03          	ld	t3,16(a5)
    80002438:	0187b303          	ld	t1,24(a5)
    8000243c:	01e73023          	sd	t5,0(a4)
    80002440:	01d73423          	sd	t4,8(a4)
    80002444:	01c73823          	sd	t3,16(a4)
    80002448:	00673c23          	sd	t1,24(a4)
    8000244c:	02078793          	addi	a5,a5,32
    80002450:	02070713          	addi	a4,a4,32
    80002454:	fd079ce3          	bne	a5,a6,8000242c <handle_fault+0xc8>
    80002458:	10089073          	csrw	sstatus,a7
    8000245c:	00369793          	slli	a5,a3,0x3
    80002460:	00f606b3          	add	a3,a2,a5
    80002464:	00b6b023          	sd	a1,0(a3)
    80002468:	12050073          	sfence.vma	a0
    8000246c:	0000100f          	fence.i
    80002470:	00813083          	ld	ra,8(sp)
    80002474:	01010113          	addi	sp,sp,16
    80002478:	00008067          	ret
    8000247c:	0407f713          	andi	a4,a5,64
    80002480:	02070a63          	beqz	a4,800024b4 <handle_fault+0x150>
    80002484:	0807f713          	andi	a4,a5,128
    80002488:	04071a63          	bnez	a4,800024dc <handle_fault+0x178>
    8000248c:	00f00713          	li	a4,15
    80002490:	0807e793          	ori	a5,a5,128
    80002494:	04e59463          	bne	a1,a4,800024dc <handle_fault+0x178>
    80002498:	00369693          	slli	a3,a3,0x3
    8000249c:	00d606b3          	add	a3,a2,a3
    800024a0:	00f6b023          	sd	a5,0(a3)
    800024a4:	12050073          	sfence.vma	a0
    800024a8:	00813083          	ld	ra,8(sp)
    800024ac:	01010113          	addi	sp,sp,16
    800024b0:	00008067          	ret
    800024b4:	0407e793          	ori	a5,a5,64
    800024b8:	fe1ff06f          	j	80002498 <handle_fault+0x134>
    800024bc:	00008797          	auipc	a5,0x8
    800024c0:	b407b223          	sd	zero,-1212(a5) # 8000a000 <freelist_tail>
    800024c4:	f01ff06f          	j	800023c4 <handle_fault+0x60>
    800024c8:	00001517          	auipc	a0,0x1
    800024cc:	c4850513          	addi	a0,a0,-952 # 80003110 <pass+0x18>
    800024d0:	d81ff0ef          	jal	ra,80002250 <cputstring>
    800024d4:	00300513          	li	a0,3
    800024d8:	dc1ff0ef          	jal	ra,80002298 <terminate>
    800024dc:	00001517          	auipc	a0,0x1
    800024e0:	c7c50513          	addi	a0,a0,-900 # 80003158 <pass+0x60>
    800024e4:	d6dff0ef          	jal	ra,80002250 <cputstring>
    800024e8:	00300513          	li	a0,3
    800024ec:	dadff0ef          	jal	ra,80002298 <terminate>
    800024f0:	00001517          	auipc	a0,0x1
    800024f4:	cb050513          	addi	a0,a0,-848 # 800031a0 <pass+0xa8>
    800024f8:	d59ff0ef          	jal	ra,80002250 <cputstring>
    800024fc:	00300513          	li	a0,3
    80002500:	d99ff0ef          	jal	ra,80002298 <terminate>
    80002504:	00001517          	auipc	a0,0x1
    80002508:	cb450513          	addi	a0,a0,-844 # 800031b8 <pass+0xc0>
    8000250c:	d45ff0ef          	jal	ra,80002250 <cputstring>
    80002510:	00300513          	li	a0,3
    80002514:	d85ff0ef          	jal	ra,80002298 <terminate>

0000000080002518 <handle_trap>:
    80002518:	11853583          	ld	a1,280(a0)
    8000251c:	f8010113          	addi	sp,sp,-128
    80002520:	06813823          	sd	s0,112(sp)
    80002524:	06113c23          	sd	ra,120(sp)
    80002528:	06913423          	sd	s1,104(sp)
    8000252c:	07213023          	sd	s2,96(sp)
    80002530:	05313c23          	sd	s3,88(sp)
    80002534:	05413823          	sd	s4,80(sp)
    80002538:	05513423          	sd	s5,72(sp)
    8000253c:	05613023          	sd	s6,64(sp)
    80002540:	03713c23          	sd	s7,56(sp)
    80002544:	03813823          	sd	s8,48(sp)
    80002548:	03913423          	sd	s9,40(sp)
    8000254c:	03a13023          	sd	s10,32(sp)
    80002550:	01b13c23          	sd	s11,24(sp)
    80002554:	00800793          	li	a5,8
    80002558:	00050413          	mv	s0,a0
    8000255c:	0ef58a63          	beq	a1,a5,80002650 <handle_trap+0x138>
    80002560:	00200793          	li	a5,2
    80002564:	06f58063          	beq	a1,a5,800025c4 <handle_trap+0xac>
    80002568:	ff458793          	addi	a5,a1,-12
    8000256c:	00100713          	li	a4,1
    80002570:	00f77663          	bgeu	a4,a5,8000257c <handle_trap+0x64>
    80002574:	00f00793          	li	a5,15
    80002578:	1ef59663          	bne	a1,a5,80002764 <handle_trap+0x24c>
    8000257c:	11043503          	ld	a0,272(s0)
    80002580:	de5ff0ef          	jal	ra,80002364 <handle_fault>
    80002584:	00040513          	mv	a0,s0
    80002588:	07013403          	ld	s0,112(sp)
    8000258c:	07813083          	ld	ra,120(sp)
    80002590:	06813483          	ld	s1,104(sp)
    80002594:	06013903          	ld	s2,96(sp)
    80002598:	05813983          	ld	s3,88(sp)
    8000259c:	05013a03          	ld	s4,80(sp)
    800025a0:	04813a83          	ld	s5,72(sp)
    800025a4:	04013b03          	ld	s6,64(sp)
    800025a8:	03813b83          	ld	s7,56(sp)
    800025ac:	03013c03          	ld	s8,48(sp)
    800025b0:	02813c83          	ld	s9,40(sp)
    800025b4:	02013d03          	ld	s10,32(sp)
    800025b8:	01813d83          	ld	s11,24(sp)
    800025bc:	08010113          	addi	sp,sp,128
    800025c0:	afdfd06f          	j	800000bc <pop_tf>
    800025c4:	10853703          	ld	a4,264(a0)
    800025c8:	00377793          	andi	a5,a4,3
    800025cc:	06079863          	bnez	a5,8000263c <handle_trap+0x124>
    800025d0:	008007ef          	jal	a5,800025d8 <handle_trap+0xc0>
    800025d4:	00301073          	fscsr	zero
    800025d8:	00072703          	lw	a4,0(a4)
    800025dc:	0007a783          	lw	a5,0(a5)
    800025e0:	04f70a63          	beq	a4,a5,80002634 <handle_trap+0x11c>
    800025e4:	10100513          	li	a0,257
    800025e8:	04100793          	li	a5,65
    800025ec:	00001697          	auipc	a3,0x1
    800025f0:	c0c68693          	addi	a3,a3,-1012 # 800031f8 <pass+0x100>
    800025f4:	fffff717          	auipc	a4,0xfffff
    800025f8:	a0c70713          	addi	a4,a4,-1524 # 80001000 <tohost>
    800025fc:	03051513          	slli	a0,a0,0x30
    80002600:	00073583          	ld	a1,0(a4)
    80002604:	00168693          	addi	a3,a3,1
    80002608:	00a7e633          	or	a2,a5,a0
    8000260c:	00058a63          	beqz	a1,80002620 <handle_trap+0x108>
    80002610:	fffff797          	auipc	a5,0xfffff
    80002614:	a207b823          	sd	zero,-1488(a5) # 80001040 <fromhost>
    80002618:	00073783          	ld	a5,0(a4)
    8000261c:	fe079ae3          	bnez	a5,80002610 <handle_trap+0xf8>
    80002620:	0006c783          	lbu	a5,0(a3)
    80002624:	00c73023          	sd	a2,0(a4)
    80002628:	fc079ce3          	bnez	a5,80002600 <handle_trap+0xe8>
    8000262c:	00300513          	li	a0,3
    80002630:	c69ff0ef          	jal	ra,80002298 <terminate>
    80002634:	00100513          	li	a0,1
    80002638:	c61ff0ef          	jal	ra,80002298 <terminate>
    8000263c:	00001517          	auipc	a0,0x1
    80002640:	c5c50513          	addi	a0,a0,-932 # 80003298 <pass+0x1a0>
    80002644:	c0dff0ef          	jal	ra,80002250 <cputstring>
    80002648:	00300513          	li	a0,3
    8000264c:	c4dff0ef          	jal	ra,80002298 <terminate>
    80002650:	05052783          	lw	a5,80(a0)
    80002654:	00001937          	lui	s2,0x1
    80002658:	00003a97          	auipc	s5,0x3
    8000265c:	9a8a8a93          	addi	s5,s5,-1624 # 80005000 <user_mapping>
    80002660:	00f13423          	sd	a5,8(sp)
    80002664:	00004d17          	auipc	s10,0x4
    80002668:	99cd0d13          	addi	s10,s10,-1636 # 80006000 <pt>
    8000266c:	00040cb7          	lui	s9,0x40
    80002670:	ffe00c37          	lui	s8,0xffe00
    80002674:	00008a17          	auipc	s4,0x8
    80002678:	98ca0a13          	addi	s4,s4,-1652 # 8000a000 <freelist_tail>
    8000267c:	00008b97          	auipc	s7,0x8
    80002680:	98cb8b93          	addi	s7,s7,-1652 # 8000a008 <freelist_head>
    80002684:	0003fb37          	lui	s6,0x3f
    80002688:	00c95793          	srli	a5,s2,0xc
    8000268c:	00479493          	slli	s1,a5,0x4
    80002690:	009a8733          	add	a4,s5,s1
    80002694:	00073703          	ld	a4,0(a4)
    80002698:	08070c63          	beqz	a4,80002730 <handle_trap+0x218>
    8000269c:	60078793          	addi	a5,a5,1536
    800026a0:	00379793          	slli	a5,a5,0x3
    800026a4:	00fd07b3          	add	a5,s10,a5
    800026a8:	0007b983          	ld	s3,0(a5)
    800026ac:	0409f793          	andi	a5,s3,64
    800026b0:	0a078063          	beqz	a5,80002750 <handle_trap+0x238>
    800026b4:	100cadf3          	csrrs	s11,sstatus,s9
    800026b8:	01890433          	add	s0,s2,s8
    800026bc:	00001637          	lui	a2,0x1
    800026c0:	00040593          	mv	a1,s0
    800026c4:	00090513          	mv	a0,s2
    800026c8:	a61ff0ef          	jal	ra,80002128 <memcmp>
    800026cc:	04050463          	beqz	a0,80002714 <handle_trap+0x1fc>
    800026d0:	0809f993          	andi	s3,s3,128
    800026d4:	0a098063          	beqz	s3,80002774 <handle_trap+0x25c>
    800026d8:	000016b7          	lui	a3,0x1
    800026dc:	00040793          	mv	a5,s0
    800026e0:	00090713          	mv	a4,s2
    800026e4:	00d406b3          	add	a3,s0,a3
    800026e8:	0007b803          	ld	a6,0(a5)
    800026ec:	0087b503          	ld	a0,8(a5)
    800026f0:	0107b583          	ld	a1,16(a5)
    800026f4:	0187b603          	ld	a2,24(a5)
    800026f8:	01073023          	sd	a6,0(a4)
    800026fc:	00a73423          	sd	a0,8(a4)
    80002700:	00b73823          	sd	a1,16(a4)
    80002704:	00c73c23          	sd	a2,24(a4)
    80002708:	02078793          	addi	a5,a5,32
    8000270c:	02070713          	addi	a4,a4,32
    80002710:	fcd79ce3          	bne	a5,a3,800026e8 <handle_trap+0x1d0>
    80002714:	009a87b3          	add	a5,s5,s1
    80002718:	100d9073          	csrw	sstatus,s11
    8000271c:	000a3703          	ld	a4,0(s4)
    80002720:	0007b023          	sd	zero,0(a5)
    80002724:	02070063          	beqz	a4,80002744 <handle_trap+0x22c>
    80002728:	00f73423          	sd	a5,8(a4)
    8000272c:	00fa3023          	sd	a5,0(s4)
    80002730:	000017b7          	lui	a5,0x1
    80002734:	00f90933          	add	s2,s2,a5
    80002738:	f56918e3          	bne	s2,s6,80002688 <handle_trap+0x170>
    8000273c:	00813503          	ld	a0,8(sp)
    80002740:	b59ff0ef          	jal	ra,80002298 <terminate>
    80002744:	00fa3023          	sd	a5,0(s4)
    80002748:	00fbb023          	sd	a5,0(s7)
    8000274c:	fe5ff06f          	j	80002730 <handle_trap+0x218>
    80002750:	00001517          	auipc	a0,0x1
    80002754:	ad850513          	addi	a0,a0,-1320 # 80003228 <pass+0x130>
    80002758:	af9ff0ef          	jal	ra,80002250 <cputstring>
    8000275c:	00300513          	li	a0,3
    80002760:	b39ff0ef          	jal	ra,80002298 <terminate>
    80002764:	00001517          	auipc	a0,0x1
    80002768:	b5c50513          	addi	a0,a0,-1188 # 800032c0 <pass+0x1c8>
    8000276c:	ae5ff0ef          	jal	ra,80002250 <cputstring>
    80002770:	ebdff06f          	j	8000262c <handle_trap+0x114>
    80002774:	00001517          	auipc	a0,0x1
    80002778:	aec50513          	addi	a0,a0,-1300 # 80003260 <pass+0x168>
    8000277c:	ad5ff0ef          	jal	ra,80002250 <cputstring>
    80002780:	00300513          	li	a0,3
    80002784:	b15ff0ef          	jal	ra,80002298 <terminate>

0000000080002788 <vm_boot>:
    80002788:	f14027f3          	csrr	a5,mhartid
    8000278c:	18079a63          	bnez	a5,80002920 <vm_boot+0x198>
    80002790:	00006797          	auipc	a5,0x6
    80002794:	87078793          	addi	a5,a5,-1936 # 80008000 <pt+0x2000>
    80002798:	ed010113          	addi	sp,sp,-304
    8000279c:	00c7d793          	srli	a5,a5,0xc
    800027a0:	12813023          	sd	s0,288(sp)
    800027a4:	00007817          	auipc	a6,0x7
    800027a8:	85c80813          	addi	a6,a6,-1956 # 80009000 <pt+0x3000>
    800027ac:	00050413          	mv	s0,a0
    800027b0:	00a79793          	slli	a5,a5,0xa
    800027b4:	00005517          	auipc	a0,0x5
    800027b8:	84c50513          	addi	a0,a0,-1972 # 80007000 <pt+0x1000>
    800027bc:	12113423          	sd	ra,296(sp)
    800027c0:	00c55693          	srli	a3,a0,0xc
    800027c4:	00c85713          	srli	a4,a6,0xc
    800027c8:	0017e793          	ori	a5,a5,1
    800027cc:	00004897          	auipc	a7,0x4
    800027d0:	83488893          	addi	a7,a7,-1996 # 80006000 <pt>
    800027d4:	fff00613          	li	a2,-1
    800027d8:	fef53c23          	sd	a5,-8(a0)
    800027dc:	00a69693          	slli	a3,a3,0xa
    800027e0:	00a71713          	slli	a4,a4,0xa
    800027e4:	200007b7          	lui	a5,0x20000
    800027e8:	0016e693          	ori	a3,a3,1
    800027ec:	00176713          	ori	a4,a4,1
    800027f0:	00c8d593          	srli	a1,a7,0xc
    800027f4:	03f61313          	slli	t1,a2,0x3f
    800027f8:	0cf78793          	addi	a5,a5,207 # 200000cf <_start-0x5fffff31>
    800027fc:	fef83c23          	sd	a5,-8(a6)
    80002800:	00d8b023          	sd	a3,0(a7)
    80002804:	00e53023          	sd	a4,0(a0)
    80002808:	0065e7b3          	or	a5,a1,t1
    8000280c:	18079073          	csrw	satp,a5
    80002810:	18002773          	csrr	a4,satp
    80002814:	14e79e63          	bne	a5,a4,80002970 <vm_boot+0x1e8>
    80002818:	00b65613          	srli	a2,a2,0xb
    8000281c:	01f00793          	li	a5,31
    80002820:	00000297          	auipc	t0,0x0
    80002824:	01428293          	addi	t0,t0,20 # 80002834 <vm_boot+0xac>
    80002828:	305292f3          	csrrw	t0,mtvec,t0
    8000282c:	3b061073          	csrw	pmpaddr0,a2
    80002830:	3a079073          	csrw	pmpcfg0,a5
    80002834:	30529073          	csrw	mtvec,t0
    80002838:	bff00813          	li	a6,-1025
    8000283c:	01581813          	slli	a6,a6,0x15
    80002840:	ffffe797          	auipc	a5,0xffffe
    80002844:	90478793          	addi	a5,a5,-1788 # 80000144 <trap_entry>
    80002848:	010787b3          	add	a5,a5,a6
    8000284c:	10579073          	csrw	stvec,a5
    80002850:	340027f3          	csrr	a5,mscratch
    80002854:	010787b3          	add	a5,a5,a6
    80002858:	14079073          	csrw	sscratch,a5
    8000285c:	0000b7b7          	lui	a5,0xb
    80002860:	1007879b          	addiw	a5,a5,256 # b100 <_start-0x7fff4f00>
    80002864:	30279073          	csrw	medeleg,a5
    80002868:	0001e7b7          	lui	a5,0x1e
    8000286c:	6007879b          	addiw	a5,a5,1536 # 1e600 <_start-0x7ffe1a00>
    80002870:	30079073          	csrw	mstatus,a5
    80002874:	30405073          	csrwi	mie,0
    80002878:	00003717          	auipc	a4,0x3
    8000287c:	b7870713          	addi	a4,a4,-1160 # 800053f0 <freelist_nodes>
    80002880:	3e080793          	addi	a5,a6,992
    80002884:	010706b3          	add	a3,a4,a6
    80002888:	00f707b3          	add	a5,a4,a5
    8000288c:	000808b7          	lui	a7,0x80
    80002890:	00007617          	auipc	a2,0x7
    80002894:	76d63c23          	sd	a3,1912(a2) # 8000a008 <freelist_head>
    80002898:	00003317          	auipc	t1,0x3
    8000289c:	f4830313          	addi	t1,t1,-184 # 800057e0 <freelist_nodes+0x3f0>
    800028a0:	00007697          	auipc	a3,0x7
    800028a4:	76f6b023          	sd	a5,1888(a3) # 8000a000 <freelist_tail>
    800028a8:	03f88893          	addi	a7,a7,63 # 8003f <_start-0x7ff7ffc1>
    800028ac:	03e00793          	li	a5,62
    800028b0:	01080813          	addi	a6,a6,16
    800028b4:	0017d613          	srli	a2,a5,0x1
    800028b8:	011786b3          	add	a3,a5,a7
    800028bc:	00f647b3          	xor	a5,a2,a5
    800028c0:	010705b3          	add	a1,a4,a6
    800028c4:	00c69693          	slli	a3,a3,0xc
    800028c8:	00579793          	slli	a5,a5,0x5
    800028cc:	00d73023          	sd	a3,0(a4)
    800028d0:	00b73423          	sd	a1,8(a4)
    800028d4:	0207f793          	andi	a5,a5,32
    800028d8:	01070713          	addi	a4,a4,16
    800028dc:	00f667b3          	or	a5,a2,a5
    800028e0:	fce31ae3          	bne	t1,a4,800028b4 <vm_boot+0x12c>
    800028e4:	12000613          	li	a2,288
    800028e8:	00000593          	li	a1,0
    800028ec:	00010513          	mv	a0,sp
    800028f0:	00003797          	auipc	a5,0x3
    800028f4:	ee07b423          	sd	zero,-280(a5) # 800057d8 <freelist_nodes+0x3e8>
    800028f8:	f64ff0ef          	jal	ra,8000205c <memset>
    800028fc:	800007b7          	lui	a5,0x80000
    80002900:	00f40433          	add	s0,s0,a5
    80002904:	00010513          	mv	a0,sp
    80002908:	10813423          	sd	s0,264(sp)
    8000290c:	fb0fd0ef          	jal	ra,800000bc <pop_tf>
    80002910:	12813083          	ld	ra,296(sp)
    80002914:	12013403          	ld	s0,288(sp)
    80002918:	13010113          	addi	sp,sp,304
    8000291c:	00008067          	ret
    80002920:	00100713          	li	a4,1
    80002924:	048057b7          	lui	a5,0x4805
    80002928:	00080637          	lui	a2,0x80
    8000292c:	f9678793          	addi	a5,a5,-106 # 4804f96 <_start-0x7b7fb06a>
    80002930:	ffc60613          	addi	a2,a2,-4 # 7fffc <_start-0x7ff80004>
    80002934:	01f71513          	slli	a0,a4,0x1f
    80002938:	03e71693          	slli	a3,a4,0x3e
    8000293c:	01c0006f          	j	80002958 <vm_boot+0x1d0>
    80002940:	0007202f          	amoadd.w	zero,zero,(a4)
    80002944:	0017d713          	srli	a4,a5,0x1
    80002948:	00e7c7b3          	xor	a5,a5,a4
    8000294c:	03e79793          	slli	a5,a5,0x3e
    80002950:	00d7f7b3          	and	a5,a5,a3
    80002954:	00e7e7b3          	or	a5,a5,a4
    80002958:	00c7f733          	and	a4,a5,a2
    8000295c:	0017f593          	andi	a1,a5,1
    80002960:	00a70733          	add	a4,a4,a0
    80002964:	fc059ee3          	bnez	a1,80002940 <vm_boot+0x1b8>
    80002968:	00072003          	lw	zero,0(a4)
    8000296c:	fd9ff06f          	j	80002944 <vm_boot+0x1bc>
    80002970:	00001517          	auipc	a0,0x1
    80002974:	98050513          	addi	a0,a0,-1664 # 800032f0 <pass+0x1f8>
    80002978:	8d9ff0ef          	jal	ra,80002250 <cputstring>
    8000297c:	00300513          	li	a0,3
    80002980:	919ff0ef          	jal	ra,80002298 <terminate>

0000000080002984 <extra_boot>:
    80002984:	00008067          	ret

0000000080002988 <userstart>:
    80002988:	00301073          	fscsr	zero

000000008000298c <test_2>:
    8000298c:	00200193          	li	gp,2
    80002990:	00001517          	auipc	a0,0x1
    80002994:	67050513          	addi	a0,a0,1648 # 80004000 <test_2_data>
    80002998:	00052007          	flw	ft0,0(a0)
    8000299c:	00452087          	flw	ft1,4(a0)
    800029a0:	00852107          	flw	ft2,8(a0)
    800029a4:	00c52683          	lw	a3,12(a0)
    800029a8:	c0001553          	fcvt.w.s	a0,ft0,rtz
    800029ac:	001015f3          	fsflags	a1,zero
    800029b0:	00100613          	li	a2,1
    800029b4:	72d51a63          	bne	a0,a3,800030e8 <fail>
    800029b8:	72c59863          	bne	a1,a2,800030e8 <fail>

00000000800029bc <test_3>:
    800029bc:	00300193          	li	gp,3
    800029c0:	00001517          	auipc	a0,0x1
    800029c4:	65050513          	addi	a0,a0,1616 # 80004010 <test_3_data>
    800029c8:	00052007          	flw	ft0,0(a0)
    800029cc:	00452087          	flw	ft1,4(a0)
    800029d0:	00852107          	flw	ft2,8(a0)
    800029d4:	00c52683          	lw	a3,12(a0)
    800029d8:	c0001553          	fcvt.w.s	a0,ft0,rtz
    800029dc:	001015f3          	fsflags	a1,zero
    800029e0:	00000613          	li	a2,0
    800029e4:	70d51263          	bne	a0,a3,800030e8 <fail>
    800029e8:	70c59063          	bne	a1,a2,800030e8 <fail>

00000000800029ec <test_4>:
    800029ec:	00400193          	li	gp,4
    800029f0:	00001517          	auipc	a0,0x1
    800029f4:	63050513          	addi	a0,a0,1584 # 80004020 <test_4_data>
    800029f8:	00052007          	flw	ft0,0(a0)
    800029fc:	00452087          	flw	ft1,4(a0)
    80002a00:	00852107          	flw	ft2,8(a0)
    80002a04:	00c52683          	lw	a3,12(a0)
    80002a08:	c0001553          	fcvt.w.s	a0,ft0,rtz
    80002a0c:	001015f3          	fsflags	a1,zero
    80002a10:	00100613          	li	a2,1
    80002a14:	6cd51a63          	bne	a0,a3,800030e8 <fail>
    80002a18:	6cc59863          	bne	a1,a2,800030e8 <fail>

0000000080002a1c <test_5>:
    80002a1c:	00500193          	li	gp,5
    80002a20:	00001517          	auipc	a0,0x1
    80002a24:	61050513          	addi	a0,a0,1552 # 80004030 <test_5_data>
    80002a28:	00052007          	flw	ft0,0(a0)
    80002a2c:	00452087          	flw	ft1,4(a0)
    80002a30:	00852107          	flw	ft2,8(a0)
    80002a34:	00c52683          	lw	a3,12(a0)
    80002a38:	c0001553          	fcvt.w.s	a0,ft0,rtz
    80002a3c:	001015f3          	fsflags	a1,zero
    80002a40:	00100613          	li	a2,1
    80002a44:	6ad51263          	bne	a0,a3,800030e8 <fail>
    80002a48:	6ac59063          	bne	a1,a2,800030e8 <fail>

0000000080002a4c <test_6>:
    80002a4c:	00600193          	li	gp,6
    80002a50:	00001517          	auipc	a0,0x1
    80002a54:	5f050513          	addi	a0,a0,1520 # 80004040 <test_6_data>
    80002a58:	00052007          	flw	ft0,0(a0)
    80002a5c:	00452087          	flw	ft1,4(a0)
    80002a60:	00852107          	flw	ft2,8(a0)
    80002a64:	00c52683          	lw	a3,12(a0)
    80002a68:	c0001553          	fcvt.w.s	a0,ft0,rtz
    80002a6c:	001015f3          	fsflags	a1,zero
    80002a70:	00000613          	li	a2,0
    80002a74:	66d51a63          	bne	a0,a3,800030e8 <fail>
    80002a78:	66c59863          	bne	a1,a2,800030e8 <fail>

0000000080002a7c <test_7>:
    80002a7c:	00700193          	li	gp,7
    80002a80:	00001517          	auipc	a0,0x1
    80002a84:	5d050513          	addi	a0,a0,1488 # 80004050 <test_7_data>
    80002a88:	00052007          	flw	ft0,0(a0)
    80002a8c:	00452087          	flw	ft1,4(a0)
    80002a90:	00852107          	flw	ft2,8(a0)
    80002a94:	00c52683          	lw	a3,12(a0)
    80002a98:	c0001553          	fcvt.w.s	a0,ft0,rtz
    80002a9c:	001015f3          	fsflags	a1,zero
    80002aa0:	00100613          	li	a2,1
    80002aa4:	64d51263          	bne	a0,a3,800030e8 <fail>
    80002aa8:	64c59063          	bne	a1,a2,800030e8 <fail>

0000000080002aac <test_8>:
    80002aac:	00800193          	li	gp,8
    80002ab0:	00001517          	auipc	a0,0x1
    80002ab4:	5b050513          	addi	a0,a0,1456 # 80004060 <test_8_data>
    80002ab8:	00052007          	flw	ft0,0(a0)
    80002abc:	00452087          	flw	ft1,4(a0)
    80002ac0:	00852107          	flw	ft2,8(a0)
    80002ac4:	00c52683          	lw	a3,12(a0)
    80002ac8:	c0001553          	fcvt.w.s	a0,ft0,rtz
    80002acc:	001015f3          	fsflags	a1,zero
    80002ad0:	01000613          	li	a2,16
    80002ad4:	60d51a63          	bne	a0,a3,800030e8 <fail>
    80002ad8:	60c59863          	bne	a1,a2,800030e8 <fail>

0000000080002adc <test_9>:
    80002adc:	00900193          	li	gp,9
    80002ae0:	00001517          	auipc	a0,0x1
    80002ae4:	59050513          	addi	a0,a0,1424 # 80004070 <test_9_data>
    80002ae8:	00052007          	flw	ft0,0(a0)
    80002aec:	00452087          	flw	ft1,4(a0)
    80002af0:	00852107          	flw	ft2,8(a0)
    80002af4:	00c52683          	lw	a3,12(a0)
    80002af8:	c0001553          	fcvt.w.s	a0,ft0,rtz
    80002afc:	001015f3          	fsflags	a1,zero
    80002b00:	01000613          	li	a2,16
    80002b04:	5ed51263          	bne	a0,a3,800030e8 <fail>
    80002b08:	5ec59063          	bne	a1,a2,800030e8 <fail>

0000000080002b0c <test_12>:
    80002b0c:	00c00193          	li	gp,12
    80002b10:	00001517          	auipc	a0,0x1
    80002b14:	57050513          	addi	a0,a0,1392 # 80004080 <test_12_data>
    80002b18:	00052007          	flw	ft0,0(a0)
    80002b1c:	00452087          	flw	ft1,4(a0)
    80002b20:	00852107          	flw	ft2,8(a0)
    80002b24:	00c52683          	lw	a3,12(a0)
    80002b28:	c0101553          	fcvt.wu.s	a0,ft0,rtz
    80002b2c:	001015f3          	fsflags	a1,zero
    80002b30:	01000613          	li	a2,16
    80002b34:	5ad51a63          	bne	a0,a3,800030e8 <fail>
    80002b38:	5ac59863          	bne	a1,a2,800030e8 <fail>

0000000080002b3c <test_13>:
    80002b3c:	00d00193          	li	gp,13
    80002b40:	00001517          	auipc	a0,0x1
    80002b44:	55050513          	addi	a0,a0,1360 # 80004090 <test_13_data>
    80002b48:	00052007          	flw	ft0,0(a0)
    80002b4c:	00452087          	flw	ft1,4(a0)
    80002b50:	00852107          	flw	ft2,8(a0)
    80002b54:	00c52683          	lw	a3,12(a0)
    80002b58:	c0101553          	fcvt.wu.s	a0,ft0,rtz
    80002b5c:	001015f3          	fsflags	a1,zero
    80002b60:	01000613          	li	a2,16
    80002b64:	58d51263          	bne	a0,a3,800030e8 <fail>
    80002b68:	58c59063          	bne	a1,a2,800030e8 <fail>

0000000080002b6c <test_14>:
    80002b6c:	00e00193          	li	gp,14
    80002b70:	00001517          	auipc	a0,0x1
    80002b74:	53050513          	addi	a0,a0,1328 # 800040a0 <test_14_data>
    80002b78:	00052007          	flw	ft0,0(a0)
    80002b7c:	00452087          	flw	ft1,4(a0)
    80002b80:	00852107          	flw	ft2,8(a0)
    80002b84:	00c52683          	lw	a3,12(a0)
    80002b88:	c0101553          	fcvt.wu.s	a0,ft0,rtz
    80002b8c:	001015f3          	fsflags	a1,zero
    80002b90:	00100613          	li	a2,1
    80002b94:	54d51a63          	bne	a0,a3,800030e8 <fail>
    80002b98:	54c59863          	bne	a1,a2,800030e8 <fail>

0000000080002b9c <test_15>:
    80002b9c:	00f00193          	li	gp,15
    80002ba0:	00001517          	auipc	a0,0x1
    80002ba4:	51050513          	addi	a0,a0,1296 # 800040b0 <test_15_data>
    80002ba8:	00052007          	flw	ft0,0(a0)
    80002bac:	00452087          	flw	ft1,4(a0)
    80002bb0:	00852107          	flw	ft2,8(a0)
    80002bb4:	00c52683          	lw	a3,12(a0)
    80002bb8:	c0101553          	fcvt.wu.s	a0,ft0,rtz
    80002bbc:	001015f3          	fsflags	a1,zero
    80002bc0:	00100613          	li	a2,1
    80002bc4:	52d51263          	bne	a0,a3,800030e8 <fail>
    80002bc8:	52c59063          	bne	a1,a2,800030e8 <fail>

0000000080002bcc <test_16>:
    80002bcc:	01000193          	li	gp,16
    80002bd0:	00001517          	auipc	a0,0x1
    80002bd4:	4f050513          	addi	a0,a0,1264 # 800040c0 <test_16_data>
    80002bd8:	00052007          	flw	ft0,0(a0)
    80002bdc:	00452087          	flw	ft1,4(a0)
    80002be0:	00852107          	flw	ft2,8(a0)
    80002be4:	00c52683          	lw	a3,12(a0)
    80002be8:	c0101553          	fcvt.wu.s	a0,ft0,rtz
    80002bec:	001015f3          	fsflags	a1,zero
    80002bf0:	00000613          	li	a2,0
    80002bf4:	4ed51a63          	bne	a0,a3,800030e8 <fail>
    80002bf8:	4ec59863          	bne	a1,a2,800030e8 <fail>

0000000080002bfc <test_17>:
    80002bfc:	01100193          	li	gp,17
    80002c00:	00001517          	auipc	a0,0x1
    80002c04:	4d050513          	addi	a0,a0,1232 # 800040d0 <test_17_data>
    80002c08:	00052007          	flw	ft0,0(a0)
    80002c0c:	00452087          	flw	ft1,4(a0)
    80002c10:	00852107          	flw	ft2,8(a0)
    80002c14:	00c52683          	lw	a3,12(a0)
    80002c18:	c0101553          	fcvt.wu.s	a0,ft0,rtz
    80002c1c:	001015f3          	fsflags	a1,zero
    80002c20:	00100613          	li	a2,1
    80002c24:	4cd51263          	bne	a0,a3,800030e8 <fail>
    80002c28:	4cc59063          	bne	a1,a2,800030e8 <fail>

0000000080002c2c <test_18>:
    80002c2c:	01200193          	li	gp,18
    80002c30:	00001517          	auipc	a0,0x1
    80002c34:	4b050513          	addi	a0,a0,1200 # 800040e0 <test_18_data>
    80002c38:	00052007          	flw	ft0,0(a0)
    80002c3c:	00452087          	flw	ft1,4(a0)
    80002c40:	00852107          	flw	ft2,8(a0)
    80002c44:	00c52683          	lw	a3,12(a0)
    80002c48:	c0101553          	fcvt.wu.s	a0,ft0,rtz
    80002c4c:	001015f3          	fsflags	a1,zero
    80002c50:	01000613          	li	a2,16
    80002c54:	48d51a63          	bne	a0,a3,800030e8 <fail>
    80002c58:	48c59863          	bne	a1,a2,800030e8 <fail>

0000000080002c5c <test_19>:
    80002c5c:	01300193          	li	gp,19
    80002c60:	00001517          	auipc	a0,0x1
    80002c64:	49050513          	addi	a0,a0,1168 # 800040f0 <test_19_data>
    80002c68:	00052007          	flw	ft0,0(a0)
    80002c6c:	00452087          	flw	ft1,4(a0)
    80002c70:	00852107          	flw	ft2,8(a0)
    80002c74:	00c52683          	lw	a3,12(a0)
    80002c78:	c0101553          	fcvt.wu.s	a0,ft0,rtz
    80002c7c:	001015f3          	fsflags	a1,zero
    80002c80:	00000613          	li	a2,0
    80002c84:	46d51263          	bne	a0,a3,800030e8 <fail>
    80002c88:	46c59063          	bne	a1,a2,800030e8 <fail>

0000000080002c8c <test_22>:
    80002c8c:	01600193          	li	gp,22
    80002c90:	00001517          	auipc	a0,0x1
    80002c94:	47050513          	addi	a0,a0,1136 # 80004100 <test_22_data>
    80002c98:	00052007          	flw	ft0,0(a0)
    80002c9c:	00452087          	flw	ft1,4(a0)
    80002ca0:	00852107          	flw	ft2,8(a0)
    80002ca4:	00c52683          	lw	a3,12(a0)
    80002ca8:	c0201553          	fcvt.l.s	a0,ft0,rtz
    80002cac:	001015f3          	fsflags	a1,zero
    80002cb0:	00100613          	li	a2,1
    80002cb4:	42d51a63          	bne	a0,a3,800030e8 <fail>
    80002cb8:	42c59863          	bne	a1,a2,800030e8 <fail>

0000000080002cbc <test_23>:
    80002cbc:	01700193          	li	gp,23
    80002cc0:	00001517          	auipc	a0,0x1
    80002cc4:	45050513          	addi	a0,a0,1104 # 80004110 <test_23_data>
    80002cc8:	00052007          	flw	ft0,0(a0)
    80002ccc:	00452087          	flw	ft1,4(a0)
    80002cd0:	00852107          	flw	ft2,8(a0)
    80002cd4:	00c52683          	lw	a3,12(a0)
    80002cd8:	c0201553          	fcvt.l.s	a0,ft0,rtz
    80002cdc:	001015f3          	fsflags	a1,zero
    80002ce0:	00000613          	li	a2,0
    80002ce4:	40d51263          	bne	a0,a3,800030e8 <fail>
    80002ce8:	40c59063          	bne	a1,a2,800030e8 <fail>

0000000080002cec <test_24>:
    80002cec:	01800193          	li	gp,24
    80002cf0:	00001517          	auipc	a0,0x1
    80002cf4:	43050513          	addi	a0,a0,1072 # 80004120 <test_24_data>
    80002cf8:	00052007          	flw	ft0,0(a0)
    80002cfc:	00452087          	flw	ft1,4(a0)
    80002d00:	00852107          	flw	ft2,8(a0)
    80002d04:	00c52683          	lw	a3,12(a0)
    80002d08:	c0201553          	fcvt.l.s	a0,ft0,rtz
    80002d0c:	001015f3          	fsflags	a1,zero
    80002d10:	00100613          	li	a2,1
    80002d14:	3cd51a63          	bne	a0,a3,800030e8 <fail>
    80002d18:	3cc59863          	bne	a1,a2,800030e8 <fail>

0000000080002d1c <test_25>:
    80002d1c:	01900193          	li	gp,25
    80002d20:	00001517          	auipc	a0,0x1
    80002d24:	41050513          	addi	a0,a0,1040 # 80004130 <test_25_data>
    80002d28:	00052007          	flw	ft0,0(a0)
    80002d2c:	00452087          	flw	ft1,4(a0)
    80002d30:	00852107          	flw	ft2,8(a0)
    80002d34:	00c52683          	lw	a3,12(a0)
    80002d38:	c0201553          	fcvt.l.s	a0,ft0,rtz
    80002d3c:	001015f3          	fsflags	a1,zero
    80002d40:	00100613          	li	a2,1
    80002d44:	3ad51263          	bne	a0,a3,800030e8 <fail>
    80002d48:	3ac59063          	bne	a1,a2,800030e8 <fail>

0000000080002d4c <test_26>:
    80002d4c:	01a00193          	li	gp,26
    80002d50:	00001517          	auipc	a0,0x1
    80002d54:	3f050513          	addi	a0,a0,1008 # 80004140 <test_26_data>
    80002d58:	00052007          	flw	ft0,0(a0)
    80002d5c:	00452087          	flw	ft1,4(a0)
    80002d60:	00852107          	flw	ft2,8(a0)
    80002d64:	00c52683          	lw	a3,12(a0)
    80002d68:	c0201553          	fcvt.l.s	a0,ft0,rtz
    80002d6c:	001015f3          	fsflags	a1,zero
    80002d70:	00000613          	li	a2,0
    80002d74:	36d51a63          	bne	a0,a3,800030e8 <fail>
    80002d78:	36c59863          	bne	a1,a2,800030e8 <fail>

0000000080002d7c <test_27>:
    80002d7c:	01b00193          	li	gp,27
    80002d80:	00001517          	auipc	a0,0x1
    80002d84:	3d050513          	addi	a0,a0,976 # 80004150 <test_27_data>
    80002d88:	00052007          	flw	ft0,0(a0)
    80002d8c:	00452087          	flw	ft1,4(a0)
    80002d90:	00852107          	flw	ft2,8(a0)
    80002d94:	00c52683          	lw	a3,12(a0)
    80002d98:	c0201553          	fcvt.l.s	a0,ft0,rtz
    80002d9c:	001015f3          	fsflags	a1,zero
    80002da0:	00100613          	li	a2,1
    80002da4:	34d51263          	bne	a0,a3,800030e8 <fail>
    80002da8:	34c59063          	bne	a1,a2,800030e8 <fail>

0000000080002dac <test_32>:
    80002dac:	02000193          	li	gp,32
    80002db0:	00001517          	auipc	a0,0x1
    80002db4:	3b050513          	addi	a0,a0,944 # 80004160 <test_32_data>
    80002db8:	00052007          	flw	ft0,0(a0)
    80002dbc:	00452087          	flw	ft1,4(a0)
    80002dc0:	00852107          	flw	ft2,8(a0)
    80002dc4:	00c52683          	lw	a3,12(a0)
    80002dc8:	c0301553          	fcvt.lu.s	a0,ft0,rtz
    80002dcc:	001015f3          	fsflags	a1,zero
    80002dd0:	01000613          	li	a2,16
    80002dd4:	30d51a63          	bne	a0,a3,800030e8 <fail>
    80002dd8:	30c59863          	bne	a1,a2,800030e8 <fail>

0000000080002ddc <test_33>:
    80002ddc:	02100193          	li	gp,33
    80002de0:	00001517          	auipc	a0,0x1
    80002de4:	39050513          	addi	a0,a0,912 # 80004170 <test_33_data>
    80002de8:	00052007          	flw	ft0,0(a0)
    80002dec:	00452087          	flw	ft1,4(a0)
    80002df0:	00852107          	flw	ft2,8(a0)
    80002df4:	00c52683          	lw	a3,12(a0)
    80002df8:	c0301553          	fcvt.lu.s	a0,ft0,rtz
    80002dfc:	001015f3          	fsflags	a1,zero
    80002e00:	01000613          	li	a2,16
    80002e04:	2ed51263          	bne	a0,a3,800030e8 <fail>
    80002e08:	2ec59063          	bne	a1,a2,800030e8 <fail>

0000000080002e0c <test_34>:
    80002e0c:	02200193          	li	gp,34
    80002e10:	00001517          	auipc	a0,0x1
    80002e14:	37050513          	addi	a0,a0,880 # 80004180 <test_34_data>
    80002e18:	00052007          	flw	ft0,0(a0)
    80002e1c:	00452087          	flw	ft1,4(a0)
    80002e20:	00852107          	flw	ft2,8(a0)
    80002e24:	00c52683          	lw	a3,12(a0)
    80002e28:	c0301553          	fcvt.lu.s	a0,ft0,rtz
    80002e2c:	001015f3          	fsflags	a1,zero
    80002e30:	00100613          	li	a2,1
    80002e34:	2ad51a63          	bne	a0,a3,800030e8 <fail>
    80002e38:	2ac59863          	bne	a1,a2,800030e8 <fail>

0000000080002e3c <test_35>:
    80002e3c:	02300193          	li	gp,35
    80002e40:	00001517          	auipc	a0,0x1
    80002e44:	35050513          	addi	a0,a0,848 # 80004190 <test_35_data>
    80002e48:	00052007          	flw	ft0,0(a0)
    80002e4c:	00452087          	flw	ft1,4(a0)
    80002e50:	00852107          	flw	ft2,8(a0)
    80002e54:	00c52683          	lw	a3,12(a0)
    80002e58:	c0301553          	fcvt.lu.s	a0,ft0,rtz
    80002e5c:	001015f3          	fsflags	a1,zero
    80002e60:	00100613          	li	a2,1
    80002e64:	28d51263          	bne	a0,a3,800030e8 <fail>
    80002e68:	28c59063          	bne	a1,a2,800030e8 <fail>

0000000080002e6c <test_36>:
    80002e6c:	02400193          	li	gp,36
    80002e70:	00001517          	auipc	a0,0x1
    80002e74:	33050513          	addi	a0,a0,816 # 800041a0 <test_36_data>
    80002e78:	00052007          	flw	ft0,0(a0)
    80002e7c:	00452087          	flw	ft1,4(a0)
    80002e80:	00852107          	flw	ft2,8(a0)
    80002e84:	00c52683          	lw	a3,12(a0)
    80002e88:	c0301553          	fcvt.lu.s	a0,ft0,rtz
    80002e8c:	001015f3          	fsflags	a1,zero
    80002e90:	00000613          	li	a2,0
    80002e94:	24d51a63          	bne	a0,a3,800030e8 <fail>
    80002e98:	24c59863          	bne	a1,a2,800030e8 <fail>

0000000080002e9c <test_37>:
    80002e9c:	02500193          	li	gp,37
    80002ea0:	00001517          	auipc	a0,0x1
    80002ea4:	31050513          	addi	a0,a0,784 # 800041b0 <test_37_data>
    80002ea8:	00052007          	flw	ft0,0(a0)
    80002eac:	00452087          	flw	ft1,4(a0)
    80002eb0:	00852107          	flw	ft2,8(a0)
    80002eb4:	00c52683          	lw	a3,12(a0)
    80002eb8:	c0301553          	fcvt.lu.s	a0,ft0,rtz
    80002ebc:	001015f3          	fsflags	a1,zero
    80002ec0:	00100613          	li	a2,1
    80002ec4:	22d51263          	bne	a0,a3,800030e8 <fail>
    80002ec8:	22c59063          	bne	a1,a2,800030e8 <fail>

0000000080002ecc <test_38>:
    80002ecc:	02600193          	li	gp,38
    80002ed0:	00001517          	auipc	a0,0x1
    80002ed4:	2f050513          	addi	a0,a0,752 # 800041c0 <test_38_data>
    80002ed8:	00052007          	flw	ft0,0(a0)
    80002edc:	00452087          	flw	ft1,4(a0)
    80002ee0:	00852107          	flw	ft2,8(a0)
    80002ee4:	00c52683          	lw	a3,12(a0)
    80002ee8:	c0301553          	fcvt.lu.s	a0,ft0,rtz
    80002eec:	001015f3          	fsflags	a1,zero
    80002ef0:	01000613          	li	a2,16
    80002ef4:	1ed51a63          	bne	a0,a3,800030e8 <fail>
    80002ef8:	1ec59863          	bne	a1,a2,800030e8 <fail>

0000000080002efc <test_42>:
    80002efc:	02a00193          	li	gp,42
    80002f00:	00001097          	auipc	ra,0x1
    80002f04:	2d008093          	addi	ra,ra,720 # 800041d0 <begin_signature>
    80002f08:	0000a087          	flw	ft1,0(ra)
    80002f0c:	c000f0d3          	fcvt.w.s	ra,ft1
    80002f10:	800003b7          	lui	t2,0x80000
    80002f14:	fff3839b          	addiw	t2,t2,-1 # 7fffffff <_start-0x1>
    80002f18:	1c709863          	bne	ra,t2,800030e8 <fail>

0000000080002f1c <test_44>:
    80002f1c:	02c00193          	li	gp,44
    80002f20:	00001097          	auipc	ra,0x1
    80002f24:	2b008093          	addi	ra,ra,688 # 800041d0 <begin_signature>
    80002f28:	0080a087          	flw	ft1,8(ra)
    80002f2c:	c000f0d3          	fcvt.w.s	ra,ft1
    80002f30:	800003b7          	lui	t2,0x80000
    80002f34:	1a709a63          	bne	ra,t2,800030e8 <fail>

0000000080002f38 <test_43>:
    80002f38:	02b00193          	li	gp,43
    80002f3c:	00001097          	auipc	ra,0x1
    80002f40:	29408093          	addi	ra,ra,660 # 800041d0 <begin_signature>
    80002f44:	0000a087          	flw	ft1,0(ra)
    80002f48:	c020f0d3          	fcvt.l.s	ra,ft1
    80002f4c:	fff0039b          	addiw	t2,zero,-1
    80002f50:	03f39393          	slli	t2,t2,0x3f
    80002f54:	fff38393          	addi	t2,t2,-1 # ffffffff7fffffff <freelist_head+0xfffffffeffff5ff7>
    80002f58:	18709863          	bne	ra,t2,800030e8 <fail>

0000000080002f5c <test_45>:
    80002f5c:	02d00193          	li	gp,45
    80002f60:	00001097          	auipc	ra,0x1
    80002f64:	27008093          	addi	ra,ra,624 # 800041d0 <begin_signature>
    80002f68:	0080a087          	flw	ft1,8(ra)
    80002f6c:	c020f0d3          	fcvt.l.s	ra,ft1
    80002f70:	fff0039b          	addiw	t2,zero,-1
    80002f74:	03f39393          	slli	t2,t2,0x3f
    80002f78:	16709863          	bne	ra,t2,800030e8 <fail>

0000000080002f7c <test_52>:
    80002f7c:	03400193          	li	gp,52
    80002f80:	00001097          	auipc	ra,0x1
    80002f84:	25008093          	addi	ra,ra,592 # 800041d0 <begin_signature>
    80002f88:	0040a087          	flw	ft1,4(ra)
    80002f8c:	c000f0d3          	fcvt.w.s	ra,ft1
    80002f90:	800003b7          	lui	t2,0x80000
    80002f94:	fff3839b          	addiw	t2,t2,-1 # 7fffffff <_start-0x1>
    80002f98:	14709863          	bne	ra,t2,800030e8 <fail>

0000000080002f9c <test_54>:
    80002f9c:	03600193          	li	gp,54
    80002fa0:	00001097          	auipc	ra,0x1
    80002fa4:	23008093          	addi	ra,ra,560 # 800041d0 <begin_signature>
    80002fa8:	00c0a087          	flw	ft1,12(ra)
    80002fac:	c000f0d3          	fcvt.w.s	ra,ft1
    80002fb0:	800003b7          	lui	t2,0x80000
    80002fb4:	fff3839b          	addiw	t2,t2,-1 # 7fffffff <_start-0x1>
    80002fb8:	12709863          	bne	ra,t2,800030e8 <fail>

0000000080002fbc <test_53>:
    80002fbc:	03500193          	li	gp,53
    80002fc0:	00001097          	auipc	ra,0x1
    80002fc4:	21008093          	addi	ra,ra,528 # 800041d0 <begin_signature>
    80002fc8:	0040a087          	flw	ft1,4(ra)
    80002fcc:	c020f0d3          	fcvt.l.s	ra,ft1
    80002fd0:	fff0039b          	addiw	t2,zero,-1
    80002fd4:	03f39393          	slli	t2,t2,0x3f
    80002fd8:	fff38393          	addi	t2,t2,-1
    80002fdc:	10709663          	bne	ra,t2,800030e8 <fail>

0000000080002fe0 <test_55>:
    80002fe0:	03700193          	li	gp,55
    80002fe4:	00001097          	auipc	ra,0x1
    80002fe8:	1ec08093          	addi	ra,ra,492 # 800041d0 <begin_signature>
    80002fec:	00c0a087          	flw	ft1,12(ra)
    80002ff0:	c020f0d3          	fcvt.l.s	ra,ft1
    80002ff4:	fff0039b          	addiw	t2,zero,-1
    80002ff8:	03f39393          	slli	t2,t2,0x3f
    80002ffc:	fff38393          	addi	t2,t2,-1
    80003000:	0e709463          	bne	ra,t2,800030e8 <fail>

0000000080003004 <test_62>:
    80003004:	03e00193          	li	gp,62
    80003008:	00001097          	auipc	ra,0x1
    8000300c:	1c808093          	addi	ra,ra,456 # 800041d0 <begin_signature>
    80003010:	0000a087          	flw	ft1,0(ra)
    80003014:	c010f0d3          	fcvt.wu.s	ra,ft1
    80003018:	fff00393          	li	t2,-1
    8000301c:	0c709663          	bne	ra,t2,800030e8 <fail>

0000000080003020 <test_63>:
    80003020:	03f00193          	li	gp,63
    80003024:	00001097          	auipc	ra,0x1
    80003028:	1ac08093          	addi	ra,ra,428 # 800041d0 <begin_signature>
    8000302c:	0040a087          	flw	ft1,4(ra)
    80003030:	c010f0d3          	fcvt.wu.s	ra,ft1
    80003034:	fff00393          	li	t2,-1
    80003038:	0a709863          	bne	ra,t2,800030e8 <fail>

000000008000303c <test_64>:
    8000303c:	04000193          	li	gp,64
    80003040:	00001097          	auipc	ra,0x1
    80003044:	19008093          	addi	ra,ra,400 # 800041d0 <begin_signature>
    80003048:	0080a087          	flw	ft1,8(ra)
    8000304c:	c010f0d3          	fcvt.wu.s	ra,ft1
    80003050:	00000393          	li	t2,0
    80003054:	08709a63          	bne	ra,t2,800030e8 <fail>

0000000080003058 <test_65>:
    80003058:	04100193          	li	gp,65
    8000305c:	00001097          	auipc	ra,0x1
    80003060:	17408093          	addi	ra,ra,372 # 800041d0 <begin_signature>
    80003064:	00c0a087          	flw	ft1,12(ra)
    80003068:	c010f0d3          	fcvt.wu.s	ra,ft1
    8000306c:	fff00393          	li	t2,-1
    80003070:	06709c63          	bne	ra,t2,800030e8 <fail>

0000000080003074 <test_66>:
    80003074:	04200193          	li	gp,66
    80003078:	00001097          	auipc	ra,0x1
    8000307c:	15808093          	addi	ra,ra,344 # 800041d0 <begin_signature>
    80003080:	0000a087          	flw	ft1,0(ra)
    80003084:	c030f0d3          	fcvt.lu.s	ra,ft1
    80003088:	fff00393          	li	t2,-1
    8000308c:	04709e63          	bne	ra,t2,800030e8 <fail>

0000000080003090 <test_67>:
    80003090:	04300193          	li	gp,67
    80003094:	00001097          	auipc	ra,0x1
    80003098:	13c08093          	addi	ra,ra,316 # 800041d0 <begin_signature>
    8000309c:	0040a087          	flw	ft1,4(ra)
    800030a0:	c030f0d3          	fcvt.lu.s	ra,ft1
    800030a4:	fff00393          	li	t2,-1
    800030a8:	04709063          	bne	ra,t2,800030e8 <fail>

00000000800030ac <test_68>:
    800030ac:	04400193          	li	gp,68
    800030b0:	00001097          	auipc	ra,0x1
    800030b4:	12008093          	addi	ra,ra,288 # 800041d0 <begin_signature>
    800030b8:	0080a087          	flw	ft1,8(ra)
    800030bc:	c030f0d3          	fcvt.lu.s	ra,ft1
    800030c0:	00000393          	li	t2,0
    800030c4:	02709263          	bne	ra,t2,800030e8 <fail>

00000000800030c8 <test_69>:
    800030c8:	04500193          	li	gp,69
    800030cc:	00001097          	auipc	ra,0x1
    800030d0:	10408093          	addi	ra,ra,260 # 800041d0 <begin_signature>
    800030d4:	00c0a087          	flw	ft1,12(ra)
    800030d8:	c030f0d3          	fcvt.lu.s	ra,ft1
    800030dc:	fff00393          	li	t2,-1
    800030e0:	00709463          	bne	ra,t2,800030e8 <fail>
    800030e4:	00301a63          	bne	zero,gp,800030f8 <pass>

00000000800030e8 <fail>:
    800030e8:	00119513          	slli	a0,gp,0x1
    800030ec:	00050063          	beqz	a0,800030ec <fail+0x4>
    800030f0:	00156513          	ori	a0,a0,1
    800030f4:	00000073          	ecall

00000000800030f8 <pass>:
    800030f8:	00100513          	li	a0,1
    800030fc:	00000073          	ecall
    80003100:	c0001073          	unimp

Дизассемблирование раздела .data:

0000000080004000 <test_2_data>:
    80004000:	cccd                	.2byte	0xcccd
    80004002:	bf8c                	.2byte	0xbf8c
    80004004:	0000                	.2byte	0x0
    80004006:	0000                	.2byte	0x0
    80004008:	0000                	.2byte	0x0
    8000400a:	0000                	.2byte	0x0
    8000400c:	ffff                	.2byte	0xffff
    8000400e:	ffff                	.2byte	0xffff

0000000080004010 <test_3_data>:
    80004010:	0000                	.2byte	0x0
    80004012:	bf80                	.2byte	0xbf80
    80004014:	0000                	.2byte	0x0
    80004016:	0000                	.2byte	0x0
    80004018:	0000                	.2byte	0x0
    8000401a:	0000                	.2byte	0x0
    8000401c:	ffff                	.2byte	0xffff
    8000401e:	ffff                	.2byte	0xffff

0000000080004020 <test_4_data>:
    80004020:	6666                	.2byte	0x6666
    80004022:	bf66                	.2byte	0xbf66
    80004024:	0000                	.2byte	0x0
    80004026:	0000                	.2byte	0x0
    80004028:	0000                	.2byte	0x0
    8000402a:	0000                	.2byte	0x0
    8000402c:	0000                	.2byte	0x0
    8000402e:	0000                	.2byte	0x0

0000000080004030 <test_5_data>:
    80004030:	6666                	.2byte	0x6666
    80004032:	3f66                	.2byte	0x3f66
    80004034:	0000                	.2byte	0x0
    80004036:	0000                	.2byte	0x0
    80004038:	0000                	.2byte	0x0
    8000403a:	0000                	.2byte	0x0
    8000403c:	0000                	.2byte	0x0
    8000403e:	0000                	.2byte	0x0

0000000080004040 <test_6_data>:
    80004040:	0000                	.2byte	0x0
    80004042:	3f80                	.2byte	0x3f80
    80004044:	0000                	.2byte	0x0
    80004046:	0000                	.2byte	0x0
    80004048:	0000                	.2byte	0x0
    8000404a:	0000                	.2byte	0x0
    8000404c:	0001                	.2byte	0x1
    8000404e:	0000                	.2byte	0x0

0000000080004050 <test_7_data>:
    80004050:	cccd                	.2byte	0xcccd
    80004052:	3f8c                	.2byte	0x3f8c
    80004054:	0000                	.2byte	0x0
    80004056:	0000                	.2byte	0x0
    80004058:	0000                	.2byte	0x0
    8000405a:	0000                	.2byte	0x0
    8000405c:	0001                	.2byte	0x1
    8000405e:	0000                	.2byte	0x0

0000000080004060 <test_8_data>:
    80004060:	d05e                	.2byte	0xd05e
    80004062:	cf32                	.2byte	0xcf32
    80004064:	0000                	.2byte	0x0
    80004066:	0000                	.2byte	0x0
    80004068:	0000                	.2byte	0x0
    8000406a:	0000                	.2byte	0x0
    8000406c:	0000                	.2byte	0x0
    8000406e:	8000                	.2byte	0x8000

0000000080004070 <test_9_data>:
    80004070:	d05e                	.2byte	0xd05e
    80004072:	4f32                	.2byte	0x4f32
    80004074:	0000                	.2byte	0x0
    80004076:	0000                	.2byte	0x0
    80004078:	0000                	.2byte	0x0
    8000407a:	0000                	.2byte	0x0
    8000407c:	ffff                	.2byte	0xffff
    8000407e:	7fff                	.2byte	0x7fff

0000000080004080 <test_12_data>:
    80004080:	0000                	.2byte	0x0
    80004082:	c040                	.2byte	0xc040
    80004084:	0000                	.2byte	0x0
    80004086:	0000                	.2byte	0x0
    80004088:	0000                	.2byte	0x0
    8000408a:	0000                	.2byte	0x0
    8000408c:	0000                	.2byte	0x0
    8000408e:	0000                	.2byte	0x0

0000000080004090 <test_13_data>:
    80004090:	0000                	.2byte	0x0
    80004092:	bf80                	.2byte	0xbf80
    80004094:	0000                	.2byte	0x0
    80004096:	0000                	.2byte	0x0
    80004098:	0000                	.2byte	0x0
    8000409a:	0000                	.2byte	0x0
    8000409c:	0000                	.2byte	0x0
    8000409e:	0000                	.2byte	0x0

00000000800040a0 <test_14_data>:
    800040a0:	6666                	.2byte	0x6666
    800040a2:	bf66                	.2byte	0xbf66
    800040a4:	0000                	.2byte	0x0
    800040a6:	0000                	.2byte	0x0
    800040a8:	0000                	.2byte	0x0
    800040aa:	0000                	.2byte	0x0
    800040ac:	0000                	.2byte	0x0
    800040ae:	0000                	.2byte	0x0

00000000800040b0 <test_15_data>:
    800040b0:	6666                	.2byte	0x6666
    800040b2:	3f66                	.2byte	0x3f66
    800040b4:	0000                	.2byte	0x0
    800040b6:	0000                	.2byte	0x0
    800040b8:	0000                	.2byte	0x0
    800040ba:	0000                	.2byte	0x0
    800040bc:	0000                	.2byte	0x0
    800040be:	0000                	.2byte	0x0

00000000800040c0 <test_16_data>:
    800040c0:	0000                	.2byte	0x0
    800040c2:	3f80                	.2byte	0x3f80
    800040c4:	0000                	.2byte	0x0
    800040c6:	0000                	.2byte	0x0
    800040c8:	0000                	.2byte	0x0
    800040ca:	0000                	.2byte	0x0
    800040cc:	0001                	.2byte	0x1
    800040ce:	0000                	.2byte	0x0

00000000800040d0 <test_17_data>:
    800040d0:	cccd                	.2byte	0xcccd
    800040d2:	3f8c                	.2byte	0x3f8c
    800040d4:	0000                	.2byte	0x0
    800040d6:	0000                	.2byte	0x0
    800040d8:	0000                	.2byte	0x0
    800040da:	0000                	.2byte	0x0
    800040dc:	0001                	.2byte	0x1
    800040de:	0000                	.2byte	0x0

00000000800040e0 <test_18_data>:
    800040e0:	d05e                	.2byte	0xd05e
    800040e2:	cf32                	.2byte	0xcf32
    800040e4:	0000                	.2byte	0x0
    800040e6:	0000                	.2byte	0x0
    800040e8:	0000                	.2byte	0x0
    800040ea:	0000                	.2byte	0x0
    800040ec:	0000                	.2byte	0x0
    800040ee:	0000                	.2byte	0x0

00000000800040f0 <test_19_data>:
    800040f0:	d05e                	.2byte	0xd05e
    800040f2:	4f32                	.2byte	0x4f32
    800040f4:	0000                	.2byte	0x0
    800040f6:	0000                	.2byte	0x0
    800040f8:	0000                	.2byte	0x0
    800040fa:	0000                	.2byte	0x0
    800040fc:	5e00                	.2byte	0x5e00
    800040fe:	b2d0                	.2byte	0xb2d0

0000000080004100 <test_22_data>:
    80004100:	cccd                	.2byte	0xcccd
    80004102:	bf8c                	.2byte	0xbf8c
    80004104:	0000                	.2byte	0x0
    80004106:	0000                	.2byte	0x0
    80004108:	0000                	.2byte	0x0
    8000410a:	0000                	.2byte	0x0
    8000410c:	ffff                	.2byte	0xffff
    8000410e:	ffff                	.2byte	0xffff

0000000080004110 <test_23_data>:
    80004110:	0000                	.2byte	0x0
    80004112:	bf80                	.2byte	0xbf80
    80004114:	0000                	.2byte	0x0
    80004116:	0000                	.2byte	0x0
    80004118:	0000                	.2byte	0x0
    8000411a:	0000                	.2byte	0x0
    8000411c:	ffff                	.2byte	0xffff
    8000411e:	ffff                	.2byte	0xffff

0000000080004120 <test_24_data>:
    80004120:	6666                	.2byte	0x6666
    80004122:	bf66                	.2byte	0xbf66
    80004124:	0000                	.2byte	0x0
    80004126:	0000                	.2byte	0x0
    80004128:	0000                	.2byte	0x0
    8000412a:	0000                	.2byte	0x0
    8000412c:	0000                	.2byte	0x0
    8000412e:	0000                	.2byte	0x0

0000000080004130 <test_25_data>:
    80004130:	6666                	.2byte	0x6666
    80004132:	3f66                	.2byte	0x3f66
    80004134:	0000                	.2byte	0x0
    80004136:	0000                	.2byte	0x0
    80004138:	0000                	.2byte	0x0
    8000413a:	0000                	.2byte	0x0
    8000413c:	0000                	.2byte	0x0
    8000413e:	0000                	.2byte	0x0

0000000080004140 <test_26_data>:
    80004140:	0000                	.2byte	0x0
    80004142:	3f80                	.2byte	0x3f80
    80004144:	0000                	.2byte	0x0
    80004146:	0000                	.2byte	0x0
    80004148:	0000                	.2byte	0x0
    8000414a:	0000                	.2byte	0x0
    8000414c:	0001                	.2byte	0x1
    8000414e:	0000                	.2byte	0x0

0000000080004150 <test_27_data>:
    80004150:	cccd                	.2byte	0xcccd
    80004152:	3f8c                	.2byte	0x3f8c
    80004154:	0000                	.2byte	0x0
    80004156:	0000                	.2byte	0x0
    80004158:	0000                	.2byte	0x0
    8000415a:	0000                	.2byte	0x0
    8000415c:	0001                	.2byte	0x1
    8000415e:	0000                	.2byte	0x0

0000000080004160 <test_32_data>:
    80004160:	0000                	.2byte	0x0
    80004162:	c040                	.2byte	0xc040
    80004164:	0000                	.2byte	0x0
    80004166:	0000                	.2byte	0x0
    80004168:	0000                	.2byte	0x0
    8000416a:	0000                	.2byte	0x0
    8000416c:	0000                	.2byte	0x0
    8000416e:	0000                	.2byte	0x0

0000000080004170 <test_33_data>:
    80004170:	0000                	.2byte	0x0
    80004172:	bf80                	.2byte	0xbf80
    80004174:	0000                	.2byte	0x0
    80004176:	0000                	.2byte	0x0
    80004178:	0000                	.2byte	0x0
    8000417a:	0000                	.2byte	0x0
    8000417c:	0000                	.2byte	0x0
    8000417e:	0000                	.2byte	0x0

0000000080004180 <test_34_data>:
    80004180:	6666                	.2byte	0x6666
    80004182:	bf66                	.2byte	0xbf66
    80004184:	0000                	.2byte	0x0
    80004186:	0000                	.2byte	0x0
    80004188:	0000                	.2byte	0x0
    8000418a:	0000                	.2byte	0x0
    8000418c:	0000                	.2byte	0x0
    8000418e:	0000                	.2byte	0x0

0000000080004190 <test_35_data>:
    80004190:	6666                	.2byte	0x6666
    80004192:	3f66                	.2byte	0x3f66
    80004194:	0000                	.2byte	0x0
    80004196:	0000                	.2byte	0x0
    80004198:	0000                	.2byte	0x0
    8000419a:	0000                	.2byte	0x0
    8000419c:	0000                	.2byte	0x0
    8000419e:	0000                	.2byte	0x0

00000000800041a0 <test_36_data>:
    800041a0:	0000                	.2byte	0x0
    800041a2:	3f80                	.2byte	0x3f80
    800041a4:	0000                	.2byte	0x0
    800041a6:	0000                	.2byte	0x0
    800041a8:	0000                	.2byte	0x0
    800041aa:	0000                	.2byte	0x0
    800041ac:	0001                	.2byte	0x1
    800041ae:	0000                	.2byte	0x0

00000000800041b0 <test_37_data>:
    800041b0:	cccd                	.2byte	0xcccd
    800041b2:	3f8c                	.2byte	0x3f8c
    800041b4:	0000                	.2byte	0x0
    800041b6:	0000                	.2byte	0x0
    800041b8:	0000                	.2byte	0x0
    800041ba:	0000                	.2byte	0x0
    800041bc:	0001                	.2byte	0x1
    800041be:	0000                	.2byte	0x0

00000000800041c0 <test_38_data>:
    800041c0:	d05e                	.2byte	0xd05e
    800041c2:	cf32                	.2byte	0xcf32
    800041c4:	0000                	.2byte	0x0
    800041c6:	0000                	.2byte	0x0
    800041c8:	0000                	.2byte	0x0
    800041ca:	0000                	.2byte	0x0
    800041cc:	0000                	.2byte	0x0
    800041ce:	0000                	.2byte	0x0

00000000800041d0 <begin_signature>:
    800041d0:	ffff                	.2byte	0xffff
    800041d2:	ffff                	.2byte	0xffff
    800041d4:	ffff                	.2byte	0xffff
    800041d6:	7fff                	.2byte	0x7fff
    800041d8:	0000                	.2byte	0x0
    800041da:	ff80                	.2byte	0xff80
    800041dc:	0000                	.2byte	0x0
    800041de:	7f80                	.2byte	0x7f80

00000000800041e0 <tdat_d>:
    800041e0:	ffff                	.2byte	0xffff
    800041e2:	ffff                	.2byte	0xffff
    800041e4:	ffff                	.2byte	0xffff
    800041e6:	ffff                	.2byte	0xffff
    800041e8:	ffff                	.2byte	0xffff
    800041ea:	ffff                	.2byte	0xffff
    800041ec:	ffff                	.2byte	0xffff
    800041ee:	7fff                	.2byte	0x7fff
    800041f0:	0000                	.2byte	0x0
    800041f2:	0000                	.2byte	0x0
    800041f4:	0000                	.2byte	0x0
    800041f6:	fff0                	.2byte	0xfff0
    800041f8:	0000                	.2byte	0x0
    800041fa:	0000                	.2byte	0x0
    800041fc:	0000                	.2byte	0x0
    800041fe:	7ff0                	.2byte	0x7ff0
