
rv64ud-v-move:     формат файла elf64-littleriscv


Дизассемблирование раздела .text.init:

0000000080000000 <_start>:
    80000000:	00c0006f          	j	8000000c <handle_reset>

0000000080000004 <nmi_vector>:
    80000004:	2bc0206f          	j	800022c0 <wtf>

0000000080000008 <trap_vector>:
    80000008:	2b80206f          	j	800022c0 <wtf>

000000008000000c <handle_reset>:
    8000000c:	00000093          	li	ra,0
    80000010:	00000113          	li	sp,0
    80000014:	00000193          	li	gp,0
    80000018:	00000213          	li	tp,0
    8000001c:	00000293          	li	t0,0
    80000020:	00000313          	li	t1,0
    80000024:	00000393          	li	t2,0
    80000028:	00000413          	li	s0,0
    8000002c:	00000493          	li	s1,0
    80000030:	00000513          	li	a0,0
    80000034:	00000593          	li	a1,0
    80000038:	00000613          	li	a2,0
    8000003c:	00000693          	li	a3,0
    80000040:	00000713          	li	a4,0
    80000044:	00000793          	li	a5,0
    80000048:	00000813          	li	a6,0
    8000004c:	00000893          	li	a7,0
    80000050:	00000913          	li	s2,0
    80000054:	00000993          	li	s3,0
    80000058:	00000a13          	li	s4,0
    8000005c:	00000a93          	li	s5,0
    80000060:	00000b13          	li	s6,0
    80000064:	00000b93          	li	s7,0
    80000068:	00000c13          	li	s8,0
    8000006c:	00000c93          	li	s9,0
    80000070:	00000d13          	li	s10,0
    80000074:	00000d93          	li	s11,0
    80000078:	00000e13          	li	t3,0
    8000007c:	00000e93          	li	t4,0
    80000080:	00000f13          	li	t5,0
    80000084:	00000f93          	li	t6,0
    80000088:	00000297          	auipc	t0,0x0
    8000008c:	f8028293          	addi	t0,t0,-128 # 80000008 <trap_vector>
    80000090:	30529073          	csrw	mtvec,t0
    80000094:	0000a117          	auipc	sp,0xa
    80000098:	e4c10113          	addi	sp,sp,-436 # 80009ee0 <freelist_head+0xed8>
    8000009c:	f14022f3          	csrr	t0,mhartid
    800000a0:	00c29293          	slli	t0,t0,0xc
    800000a4:	00510133          	add	sp,sp,t0
    800000a8:	34011073          	csrw	mscratch,sp
    800000ac:	0d9020ef          	jal	ra,80002984 <extra_boot>
    800000b0:	00003517          	auipc	a0,0x3
    800000b4:	8d850513          	addi	a0,a0,-1832 # 80002988 <userstart>
    800000b8:	6d00206f          	j	80002788 <vm_boot>

00000000800000bc <pop_tf>:
    800000bc:	10853283          	ld	t0,264(a0)
    800000c0:	14129073          	csrw	sepc,t0
    800000c4:	00853083          	ld	ra,8(a0)
    800000c8:	01053103          	ld	sp,16(a0)
    800000cc:	01853183          	ld	gp,24(a0)
    800000d0:	02053203          	ld	tp,32(a0)
    800000d4:	02853283          	ld	t0,40(a0)
    800000d8:	03053303          	ld	t1,48(a0)
    800000dc:	03853383          	ld	t2,56(a0)
    800000e0:	04053403          	ld	s0,64(a0)
    800000e4:	04853483          	ld	s1,72(a0)
    800000e8:	05853583          	ld	a1,88(a0)
    800000ec:	06053603          	ld	a2,96(a0)
    800000f0:	06853683          	ld	a3,104(a0)
    800000f4:	07053703          	ld	a4,112(a0)
    800000f8:	07853783          	ld	a5,120(a0)
    800000fc:	08053803          	ld	a6,128(a0)
    80000100:	08853883          	ld	a7,136(a0)
    80000104:	09053903          	ld	s2,144(a0)
    80000108:	09853983          	ld	s3,152(a0)
    8000010c:	0a053a03          	ld	s4,160(a0)
    80000110:	0a853a83          	ld	s5,168(a0)
    80000114:	0b053b03          	ld	s6,176(a0)
    80000118:	0b853b83          	ld	s7,184(a0)
    8000011c:	0c053c03          	ld	s8,192(a0)
    80000120:	0c853c83          	ld	s9,200(a0)
    80000124:	0d053d03          	ld	s10,208(a0)
    80000128:	0d853d83          	ld	s11,216(a0)
    8000012c:	0e053e03          	ld	t3,224(a0)
    80000130:	0e853e83          	ld	t4,232(a0)
    80000134:	0f053f03          	ld	t5,240(a0)
    80000138:	0f853f83          	ld	t6,248(a0)
    8000013c:	05053503          	ld	a0,80(a0)
    80000140:	10200073          	sret

0000000080000144 <trap_entry>:
    80000144:	14011173          	csrrw	sp,sscratch,sp
    80000148:	00113423          	sd	ra,8(sp)
    8000014c:	00313c23          	sd	gp,24(sp)
    80000150:	02413023          	sd	tp,32(sp)
    80000154:	02513423          	sd	t0,40(sp)
    80000158:	02613823          	sd	t1,48(sp)
    8000015c:	02713c23          	sd	t2,56(sp)
    80000160:	04813023          	sd	s0,64(sp)
    80000164:	04913423          	sd	s1,72(sp)
    80000168:	04a13823          	sd	a0,80(sp)
    8000016c:	04b13c23          	sd	a1,88(sp)
    80000170:	06c13023          	sd	a2,96(sp)
    80000174:	06d13423          	sd	a3,104(sp)
    80000178:	06e13823          	sd	a4,112(sp)
    8000017c:	06f13c23          	sd	a5,120(sp)
    80000180:	09013023          	sd	a6,128(sp)
    80000184:	09113423          	sd	a7,136(sp)
    80000188:	09213823          	sd	s2,144(sp)
    8000018c:	09313c23          	sd	s3,152(sp)
    80000190:	0b413023          	sd	s4,160(sp)
    80000194:	0b513423          	sd	s5,168(sp)
    80000198:	0b613823          	sd	s6,176(sp)
    8000019c:	0b713c23          	sd	s7,184(sp)
    800001a0:	0d813023          	sd	s8,192(sp)
    800001a4:	0d913423          	sd	s9,200(sp)
    800001a8:	0da13823          	sd	s10,208(sp)
    800001ac:	0db13c23          	sd	s11,216(sp)
    800001b0:	0fc13023          	sd	t3,224(sp)
    800001b4:	0fd13423          	sd	t4,232(sp)
    800001b8:	0fe13823          	sd	t5,240(sp)
    800001bc:	0ff13c23          	sd	t6,248(sp)
    800001c0:	140112f3          	csrrw	t0,sscratch,sp
    800001c4:	00513823          	sd	t0,16(sp)
    800001c8:	100022f3          	csrr	t0,sstatus
    800001cc:	10513023          	sd	t0,256(sp)
    800001d0:	141022f3          	csrr	t0,sepc
    800001d4:	10513423          	sd	t0,264(sp)
    800001d8:	143022f3          	csrr	t0,stval
    800001dc:	10513823          	sd	t0,272(sp)
    800001e0:	142022f3          	csrr	t0,scause
    800001e4:	10513c23          	sd	t0,280(sp)
    800001e8:	00010513          	mv	a0,sp
    800001ec:	32c0206f          	j	80002518 <handle_trap>

Дизассемблирование раздела .text:

0000000080002000 <memcpy>:
    80002000:	00b567b3          	or	a5,a0,a1
    80002004:	00c7e7b3          	or	a5,a5,a2
    80002008:	0077f793          	andi	a5,a5,7
    8000200c:	00c506b3          	add	a3,a0,a2
    80002010:	02078463          	beqz	a5,80002038 <memcpy+0x38>
    80002014:	00c58633          	add	a2,a1,a2
    80002018:	00050793          	mv	a5,a0
    8000201c:	02d57e63          	bgeu	a0,a3,80002058 <memcpy+0x58>
    80002020:	0005c703          	lbu	a4,0(a1)
    80002024:	00158593          	addi	a1,a1,1
    80002028:	00178793          	addi	a5,a5,1
    8000202c:	fee78fa3          	sb	a4,-1(a5)
    80002030:	fec598e3          	bne	a1,a2,80002020 <memcpy+0x20>
    80002034:	00008067          	ret
    80002038:	fed57ee3          	bgeu	a0,a3,80002034 <memcpy+0x34>
    8000203c:	00050793          	mv	a5,a0
    80002040:	0005b703          	ld	a4,0(a1)
    80002044:	00878793          	addi	a5,a5,8
    80002048:	00858593          	addi	a1,a1,8
    8000204c:	fee7bc23          	sd	a4,-8(a5)
    80002050:	fed7e8e3          	bltu	a5,a3,80002040 <memcpy+0x40>
    80002054:	00008067          	ret
    80002058:	00008067          	ret

000000008000205c <memset>:
    8000205c:	ff010113          	addi	sp,sp,-16
    80002060:	00c567b3          	or	a5,a0,a2
    80002064:	00813023          	sd	s0,0(sp)
    80002068:	00113423          	sd	ra,8(sp)
    8000206c:	0077f793          	andi	a5,a5,7
    80002070:	00050413          	mv	s0,a0
    80002074:	00c50733          	add	a4,a0,a2
    80002078:	02078263          	beqz	a5,8000209c <memset+0x40>
    8000207c:	00e57663          	bgeu	a0,a4,80002088 <memset+0x2c>
    80002080:	0ff5f593          	zext.b	a1,a1
    80002084:	fd9ff0ef          	jal	ra,8000205c <memset>
    80002088:	00813083          	ld	ra,8(sp)
    8000208c:	00040513          	mv	a0,s0
    80002090:	00013403          	ld	s0,0(sp)
    80002094:	01010113          	addi	sp,sp,16
    80002098:	00008067          	ret
    8000209c:	0ff5f593          	zext.b	a1,a1
    800020a0:	00001797          	auipc	a5,0x1
    800020a4:	7e87b783          	ld	a5,2024(a5) # 80003888 <pass+0x10>
    800020a8:	02f585b3          	mul	a1,a1,a5
    800020ac:	fce57ee3          	bgeu	a0,a4,80002088 <memset+0x2c>
    800020b0:	00050793          	mv	a5,a0
    800020b4:	00878793          	addi	a5,a5,8
    800020b8:	feb7bc23          	sd	a1,-8(a5)
    800020bc:	fee7ece3          	bltu	a5,a4,800020b4 <memset+0x58>
    800020c0:	00813083          	ld	ra,8(sp)
    800020c4:	00040513          	mv	a0,s0
    800020c8:	00013403          	ld	s0,0(sp)
    800020cc:	01010113          	addi	sp,sp,16
    800020d0:	00008067          	ret

00000000800020d4 <strlen>:
    800020d4:	00054783          	lbu	a5,0(a0)
    800020d8:	00078e63          	beqz	a5,800020f4 <strlen+0x20>
    800020dc:	00050793          	mv	a5,a0
    800020e0:	0017c703          	lbu	a4,1(a5)
    800020e4:	00178793          	addi	a5,a5,1
    800020e8:	fe071ce3          	bnez	a4,800020e0 <strlen+0xc>
    800020ec:	40a78533          	sub	a0,a5,a0
    800020f0:	00008067          	ret
    800020f4:	00000513          	li	a0,0
    800020f8:	00008067          	ret

00000000800020fc <strcmp>:
    800020fc:	00054783          	lbu	a5,0(a0)
    80002100:	00158593          	addi	a1,a1,1
    80002104:	00150513          	addi	a0,a0,1
    80002108:	fff5c703          	lbu	a4,-1(a1)
    8000210c:	00078a63          	beqz	a5,80002120 <strcmp+0x24>
    80002110:	fee786e3          	beq	a5,a4,800020fc <strcmp>
    80002114:	0007851b          	sext.w	a0,a5
    80002118:	40e5053b          	subw	a0,a0,a4
    8000211c:	00008067          	ret
    80002120:	00000513          	li	a0,0
    80002124:	ff5ff06f          	j	80002118 <strcmp+0x1c>

0000000080002128 <memcmp>:
    80002128:	00b567b3          	or	a5,a0,a1
    8000212c:	0077f793          	andi	a5,a5,7
    80002130:	02079e63          	bnez	a5,8000216c <memcmp+0x44>
    80002134:	ff867813          	andi	a6,a2,-8
    80002138:	01050833          	add	a6,a0,a6
    8000213c:	03057863          	bgeu	a0,a6,8000216c <memcmp+0x44>
    80002140:	00050793          	mv	a5,a0
    80002144:	0100006f          	j	80002154 <memcmp+0x2c>
    80002148:	00878793          	addi	a5,a5,8
    8000214c:	00858593          	addi	a1,a1,8
    80002150:	0107f863          	bgeu	a5,a6,80002160 <memcmp+0x38>
    80002154:	0007b683          	ld	a3,0(a5)
    80002158:	0005b703          	ld	a4,0(a1)
    8000215c:	fee686e3          	beq	a3,a4,80002148 <memcmp+0x20>
    80002160:	40a78533          	sub	a0,a5,a0
    80002164:	40a60633          	sub	a2,a2,a0
    80002168:	00078513          	mv	a0,a5
    8000216c:	00c58633          	add	a2,a1,a2
    80002170:	0140006f          	j	80002184 <memcmp+0x5c>
    80002174:	0005c703          	lbu	a4,0(a1)
    80002178:	fff54783          	lbu	a5,-1(a0)
    8000217c:	00158593          	addi	a1,a1,1
    80002180:	00e79a63          	bne	a5,a4,80002194 <memcmp+0x6c>
    80002184:	00150513          	addi	a0,a0,1
    80002188:	fec596e3          	bne	a1,a2,80002174 <memcmp+0x4c>
    8000218c:	00000513          	li	a0,0
    80002190:	00008067          	ret
    80002194:	40e7853b          	subw	a0,a5,a4
    80002198:	00008067          	ret

000000008000219c <strcpy>:
    8000219c:	00050793          	mv	a5,a0
    800021a0:	0005c703          	lbu	a4,0(a1)
    800021a4:	00178793          	addi	a5,a5,1
    800021a8:	00158593          	addi	a1,a1,1
    800021ac:	fee78fa3          	sb	a4,-1(a5)
    800021b0:	fe0718e3          	bnez	a4,800021a0 <strcpy+0x4>
    800021b4:	00008067          	ret

00000000800021b8 <atol>:
    800021b8:	00054703          	lbu	a4,0(a0)
    800021bc:	02000693          	li	a3,32
    800021c0:	00050793          	mv	a5,a0
    800021c4:	00d71863          	bne	a4,a3,800021d4 <atol+0x1c>
    800021c8:	0017c703          	lbu	a4,1(a5)
    800021cc:	00178793          	addi	a5,a5,1
    800021d0:	fed70ce3          	beq	a4,a3,800021c8 <atol+0x10>
    800021d4:	02d00693          	li	a3,45
    800021d8:	06d70063          	beq	a4,a3,80002238 <atol+0x80>
    800021dc:	02b00693          	li	a3,43
    800021e0:	04d70063          	beq	a4,a3,80002220 <atol+0x68>
    800021e4:	0007c683          	lbu	a3,0(a5)
    800021e8:	00000593          	li	a1,0
    800021ec:	04068263          	beqz	a3,80002230 <atol+0x78>
    800021f0:	00000513          	li	a0,0
    800021f4:	00178793          	addi	a5,a5,1
    800021f8:	00251713          	slli	a4,a0,0x2
    800021fc:	fd06861b          	addiw	a2,a3,-48
    80002200:	0007c683          	lbu	a3,0(a5)
    80002204:	00a70733          	add	a4,a4,a0
    80002208:	00171713          	slli	a4,a4,0x1
    8000220c:	00e60533          	add	a0,a2,a4
    80002210:	fe0692e3          	bnez	a3,800021f4 <atol+0x3c>
    80002214:	02058063          	beqz	a1,80002234 <atol+0x7c>
    80002218:	40a00533          	neg	a0,a0
    8000221c:	00008067          	ret
    80002220:	0017c683          	lbu	a3,1(a5)
    80002224:	00000593          	li	a1,0
    80002228:	00178793          	addi	a5,a5,1
    8000222c:	fc0692e3          	bnez	a3,800021f0 <atol+0x38>
    80002230:	00000513          	li	a0,0
    80002234:	00008067          	ret
    80002238:	0017c683          	lbu	a3,1(a5)
    8000223c:	00100593          	li	a1,1
    80002240:	00178793          	addi	a5,a5,1
    80002244:	fa0696e3          	bnez	a3,800021f0 <atol+0x38>
    80002248:	00000513          	li	a0,0
    8000224c:	fe9ff06f          	j	80002234 <atol+0x7c>

0000000080002250 <cputstring>:
    80002250:	00054783          	lbu	a5,0(a0)
    80002254:	04078063          	beqz	a5,80002294 <cputstring+0x44>
    80002258:	10100593          	li	a1,257
    8000225c:	fffff717          	auipc	a4,0xfffff
    80002260:	da470713          	addi	a4,a4,-604 # 80001000 <tohost>
    80002264:	03059593          	slli	a1,a1,0x30
    80002268:	00073603          	ld	a2,0(a4)
    8000226c:	00150513          	addi	a0,a0,1
    80002270:	00b7e6b3          	or	a3,a5,a1
    80002274:	00060a63          	beqz	a2,80002288 <cputstring+0x38>
    80002278:	fffff797          	auipc	a5,0xfffff
    8000227c:	dc07b423          	sd	zero,-568(a5) # 80001040 <fromhost>
    80002280:	00073783          	ld	a5,0(a4)
    80002284:	fe079ae3          	bnez	a5,80002278 <cputstring+0x28>
    80002288:	00d73023          	sd	a3,0(a4)
    8000228c:	00054783          	lbu	a5,0(a0)
    80002290:	fc079ce3          	bnez	a5,80002268 <cputstring+0x18>
    80002294:	00008067          	ret

0000000080002298 <terminate>:
    80002298:	fffff717          	auipc	a4,0xfffff
    8000229c:	d6870713          	addi	a4,a4,-664 # 80001000 <tohost>
    800022a0:	00073783          	ld	a5,0(a4)
    800022a4:	00078a63          	beqz	a5,800022b8 <terminate+0x20>
    800022a8:	fffff797          	auipc	a5,0xfffff
    800022ac:	d807bc23          	sd	zero,-616(a5) # 80001040 <fromhost>
    800022b0:	00073783          	ld	a5,0(a4)
    800022b4:	fe079ae3          	bnez	a5,800022a8 <terminate+0x10>
    800022b8:	00a73023          	sd	a0,0(a4)
    800022bc:	0000006f          	j	800022bc <terminate+0x24>

00000000800022c0 <wtf>:
    800022c0:	ff010113          	addi	sp,sp,-16
    800022c4:	34900513          	li	a0,841
    800022c8:	00113423          	sd	ra,8(sp)
    800022cc:	fcdff0ef          	jal	ra,80002298 <terminate>

00000000800022d0 <printhex>:
    800022d0:	fe010113          	addi	sp,sp,-32
    800022d4:	00810613          	addi	a2,sp,8
    800022d8:	01710793          	addi	a5,sp,23
    800022dc:	00900813          	li	a6,9
    800022e0:	0080006f          	j	800022e8 <printhex+0x18>
    800022e4:	00070793          	mv	a5,a4
    800022e8:	00f57693          	andi	a3,a0,15
    800022ec:	00068713          	mv	a4,a3
    800022f0:	03000593          	li	a1,48
    800022f4:	00d87463          	bgeu	a6,a3,800022fc <printhex+0x2c>
    800022f8:	05700593          	li	a1,87
    800022fc:	00b7073b          	addw	a4,a4,a1
    80002300:	00e78023          	sb	a4,0(a5)
    80002304:	00455513          	srli	a0,a0,0x4
    80002308:	fff78713          	addi	a4,a5,-1
    8000230c:	fcf61ce3          	bne	a2,a5,800022e4 <printhex+0x14>
    80002310:	00814783          	lbu	a5,8(sp)
    80002314:	00010c23          	sb	zero,24(sp)
    80002318:	04078263          	beqz	a5,8000235c <printhex+0x8c>
    8000231c:	10100513          	li	a0,257
    80002320:	00060693          	mv	a3,a2
    80002324:	fffff717          	auipc	a4,0xfffff
    80002328:	cdc70713          	addi	a4,a4,-804 # 80001000 <tohost>
    8000232c:	03051513          	slli	a0,a0,0x30
    80002330:	00073583          	ld	a1,0(a4)
    80002334:	00168693          	addi	a3,a3,1
    80002338:	00a7e633          	or	a2,a5,a0
    8000233c:	00058a63          	beqz	a1,80002350 <printhex+0x80>
    80002340:	fffff797          	auipc	a5,0xfffff
    80002344:	d007b023          	sd	zero,-768(a5) # 80001040 <fromhost>
    80002348:	00073783          	ld	a5,0(a4)
    8000234c:	fe079ae3          	bnez	a5,80002340 <printhex+0x70>
    80002350:	0006c783          	lbu	a5,0(a3)
    80002354:	00c73023          	sd	a2,0(a4)
    80002358:	fc079ce3          	bnez	a5,80002330 <printhex+0x60>
    8000235c:	02010113          	addi	sp,sp,32
    80002360:	00008067          	ret

0000000080002364 <handle_fault>:
    80002364:	ff010113          	addi	sp,sp,-16
    80002368:	fffff837          	lui	a6,0xfffff
    8000236c:	00113423          	sd	ra,8(sp)
    80002370:	01050733          	add	a4,a0,a6
    80002374:	0003e7b7          	lui	a5,0x3e
    80002378:	14f77863          	bgeu	a4,a5,800024c8 <handle_fault+0x164>
    8000237c:	00c55713          	srli	a4,a0,0xc
    80002380:	60070693          	addi	a3,a4,1536
    80002384:	00003617          	auipc	a2,0x3
    80002388:	c7c60613          	addi	a2,a2,-900 # 80005000 <pt>
    8000238c:	00369793          	slli	a5,a3,0x3
    80002390:	00f607b3          	add	a5,a2,a5
    80002394:	0007b783          	ld	a5,0(a5) # 3e000 <_start-0x7ffc2000>
    80002398:	01057533          	and	a0,a0,a6
    8000239c:	0e079063          	bnez	a5,8000247c <handle_fault+0x118>
    800023a0:	00007597          	auipc	a1,0x7
    800023a4:	c6858593          	addi	a1,a1,-920 # 80009008 <freelist_head>
    800023a8:	0005b803          	ld	a6,0(a1)
    800023ac:	14080263          	beqz	a6,800024f0 <handle_fault+0x18c>
    800023b0:	00883783          	ld	a5,8(a6) # fffffffffffff008 <freelist_head+0xffffffff7fff6000>
    800023b4:	00007897          	auipc	a7,0x7
    800023b8:	c4c8b883          	ld	a7,-948(a7) # 80009000 <freelist_tail>
    800023bc:	00f5b023          	sd	a5,0(a1)
    800023c0:	0f178e63          	beq	a5,a7,800024bc <handle_fault+0x158>
    800023c4:	00083783          	ld	a5,0(a6)
    800023c8:	00369893          	slli	a7,a3,0x3
    800023cc:	011608b3          	add	a7,a2,a7
    800023d0:	00c7d793          	srli	a5,a5,0xc
    800023d4:	00a79793          	slli	a5,a5,0xa
    800023d8:	0df7e313          	ori	t1,a5,223
    800023dc:	01f7e593          	ori	a1,a5,31
    800023e0:	0068b023          	sd	t1,0(a7)
    800023e4:	12050073          	sfence.vma	a0
    800023e8:	00002797          	auipc	a5,0x2
    800023ec:	c1878793          	addi	a5,a5,-1000 # 80004000 <user_mapping>
    800023f0:	00471713          	slli	a4,a4,0x4
    800023f4:	00e787b3          	add	a5,a5,a4
    800023f8:	0007b703          	ld	a4,0(a5)
    800023fc:	10071463          	bnez	a4,80002504 <handle_fault+0x1a0>
    80002400:	00083703          	ld	a4,0(a6)
    80002404:	000408b7          	lui	a7,0x40
    80002408:	00e7b023          	sd	a4,0(a5)
    8000240c:	00883703          	ld	a4,8(a6)
    80002410:	00e7b423          	sd	a4,8(a5)
    80002414:	1008a8f3          	csrrs	a7,sstatus,a7
    80002418:	ffe007b7          	lui	a5,0xffe00
    8000241c:	00f507b3          	add	a5,a0,a5
    80002420:	00001837          	lui	a6,0x1
    80002424:	00050713          	mv	a4,a0
    80002428:	01078833          	add	a6,a5,a6
    8000242c:	0007bf03          	ld	t5,0(a5) # ffffffffffe00000 <freelist_head+0xffffffff7fdf6ff8>
    80002430:	0087be83          	ld	t4,8(a5)
    80002434:	0107be03          	ld	t3,16(a5)
    80002438:	0187b303          	ld	t1,24(a5)
    8000243c:	01e73023          	sd	t5,0(a4)
    80002440:	01d73423          	sd	t4,8(a4)
    80002444:	01c73823          	sd	t3,16(a4)
    80002448:	00673c23          	sd	t1,24(a4)
    8000244c:	02078793          	addi	a5,a5,32
    80002450:	02070713          	addi	a4,a4,32
    80002454:	fd079ce3          	bne	a5,a6,8000242c <handle_fault+0xc8>
    80002458:	10089073          	csrw	sstatus,a7
    8000245c:	00369793          	slli	a5,a3,0x3
    80002460:	00f606b3          	add	a3,a2,a5
    80002464:	00b6b023          	sd	a1,0(a3)
    80002468:	12050073          	sfence.vma	a0
    8000246c:	0000100f          	fence.i
    80002470:	00813083          	ld	ra,8(sp)
    80002474:	01010113          	addi	sp,sp,16
    80002478:	00008067          	ret
    8000247c:	0407f713          	andi	a4,a5,64
    80002480:	02070a63          	beqz	a4,800024b4 <handle_fault+0x150>
    80002484:	0807f713          	andi	a4,a5,128
    80002488:	04071a63          	bnez	a4,800024dc <handle_fault+0x178>
    8000248c:	00f00713          	li	a4,15
    80002490:	0807e793          	ori	a5,a5,128
    80002494:	04e59463          	bne	a1,a4,800024dc <handle_fault+0x178>
    80002498:	00369693          	slli	a3,a3,0x3
    8000249c:	00d606b3          	add	a3,a2,a3
    800024a0:	00f6b023          	sd	a5,0(a3)
    800024a4:	12050073          	sfence.vma	a0
    800024a8:	00813083          	ld	ra,8(sp)
    800024ac:	01010113          	addi	sp,sp,16
    800024b0:	00008067          	ret
    800024b4:	0407e793          	ori	a5,a5,64
    800024b8:	fe1ff06f          	j	80002498 <handle_fault+0x134>
    800024bc:	00007797          	auipc	a5,0x7
    800024c0:	b407b223          	sd	zero,-1212(a5) # 80009000 <freelist_tail>
    800024c4:	f01ff06f          	j	800023c4 <handle_fault+0x60>
    800024c8:	00001517          	auipc	a0,0x1
    800024cc:	3c850513          	addi	a0,a0,968 # 80003890 <pass+0x18>
    800024d0:	d81ff0ef          	jal	ra,80002250 <cputstring>
    800024d4:	00300513          	li	a0,3
    800024d8:	dc1ff0ef          	jal	ra,80002298 <terminate>
    800024dc:	00001517          	auipc	a0,0x1
    800024e0:	3fc50513          	addi	a0,a0,1020 # 800038d8 <pass+0x60>
    800024e4:	d6dff0ef          	jal	ra,80002250 <cputstring>
    800024e8:	00300513          	li	a0,3
    800024ec:	dadff0ef          	jal	ra,80002298 <terminate>
    800024f0:	00001517          	auipc	a0,0x1
    800024f4:	43050513          	addi	a0,a0,1072 # 80003920 <pass+0xa8>
    800024f8:	d59ff0ef          	jal	ra,80002250 <cputstring>
    800024fc:	00300513          	li	a0,3
    80002500:	d99ff0ef          	jal	ra,80002298 <terminate>
    80002504:	00001517          	auipc	a0,0x1
    80002508:	43450513          	addi	a0,a0,1076 # 80003938 <pass+0xc0>
    8000250c:	d45ff0ef          	jal	ra,80002250 <cputstring>
    80002510:	00300513          	li	a0,3
    80002514:	d85ff0ef          	jal	ra,80002298 <terminate>

0000000080002518 <handle_trap>:
    80002518:	11853583          	ld	a1,280(a0)
    8000251c:	f8010113          	addi	sp,sp,-128
    80002520:	06813823          	sd	s0,112(sp)
    80002524:	06113c23          	sd	ra,120(sp)
    80002528:	06913423          	sd	s1,104(sp)
    8000252c:	07213023          	sd	s2,96(sp)
    80002530:	05313c23          	sd	s3,88(sp)
    80002534:	05413823          	sd	s4,80(sp)
    80002538:	05513423          	sd	s5,72(sp)
    8000253c:	05613023          	sd	s6,64(sp)
    80002540:	03713c23          	sd	s7,56(sp)
    80002544:	03813823          	sd	s8,48(sp)
    80002548:	03913423          	sd	s9,40(sp)
    8000254c:	03a13023          	sd	s10,32(sp)
    80002550:	01b13c23          	sd	s11,24(sp)
    80002554:	00800793          	li	a5,8
    80002558:	00050413          	mv	s0,a0
    8000255c:	0ef58a63          	beq	a1,a5,80002650 <handle_trap+0x138>
    80002560:	00200793          	li	a5,2
    80002564:	06f58063          	beq	a1,a5,800025c4 <handle_trap+0xac>
    80002568:	ff458793          	addi	a5,a1,-12
    8000256c:	00100713          	li	a4,1
    80002570:	00f77663          	bgeu	a4,a5,8000257c <handle_trap+0x64>
    80002574:	00f00793          	li	a5,15
    80002578:	1ef59663          	bne	a1,a5,80002764 <handle_trap+0x24c>
    8000257c:	11043503          	ld	a0,272(s0)
    80002580:	de5ff0ef          	jal	ra,80002364 <handle_fault>
    80002584:	00040513          	mv	a0,s0
    80002588:	07013403          	ld	s0,112(sp)
    8000258c:	07813083          	ld	ra,120(sp)
    80002590:	06813483          	ld	s1,104(sp)
    80002594:	06013903          	ld	s2,96(sp)
    80002598:	05813983          	ld	s3,88(sp)
    8000259c:	05013a03          	ld	s4,80(sp)
    800025a0:	04813a83          	ld	s5,72(sp)
    800025a4:	04013b03          	ld	s6,64(sp)
    800025a8:	03813b83          	ld	s7,56(sp)
    800025ac:	03013c03          	ld	s8,48(sp)
    800025b0:	02813c83          	ld	s9,40(sp)
    800025b4:	02013d03          	ld	s10,32(sp)
    800025b8:	01813d83          	ld	s11,24(sp)
    800025bc:	08010113          	addi	sp,sp,128
    800025c0:	afdfd06f          	j	800000bc <pop_tf>
    800025c4:	10853703          	ld	a4,264(a0)
    800025c8:	00377793          	andi	a5,a4,3
    800025cc:	06079863          	bnez	a5,8000263c <handle_trap+0x124>
    800025d0:	008007ef          	jal	a5,800025d8 <handle_trap+0xc0>
    800025d4:	00301073          	fscsr	zero
    800025d8:	00072703          	lw	a4,0(a4)
    800025dc:	0007a783          	lw	a5,0(a5)
    800025e0:	04f70a63          	beq	a4,a5,80002634 <handle_trap+0x11c>
    800025e4:	10100513          	li	a0,257
    800025e8:	04100793          	li	a5,65
    800025ec:	00001697          	auipc	a3,0x1
    800025f0:	38c68693          	addi	a3,a3,908 # 80003978 <pass+0x100>
    800025f4:	fffff717          	auipc	a4,0xfffff
    800025f8:	a0c70713          	addi	a4,a4,-1524 # 80001000 <tohost>
    800025fc:	03051513          	slli	a0,a0,0x30
    80002600:	00073583          	ld	a1,0(a4)
    80002604:	00168693          	addi	a3,a3,1
    80002608:	00a7e633          	or	a2,a5,a0
    8000260c:	00058a63          	beqz	a1,80002620 <handle_trap+0x108>
    80002610:	fffff797          	auipc	a5,0xfffff
    80002614:	a207b823          	sd	zero,-1488(a5) # 80001040 <fromhost>
    80002618:	00073783          	ld	a5,0(a4)
    8000261c:	fe079ae3          	bnez	a5,80002610 <handle_trap+0xf8>
    80002620:	0006c783          	lbu	a5,0(a3)
    80002624:	00c73023          	sd	a2,0(a4)
    80002628:	fc079ce3          	bnez	a5,80002600 <handle_trap+0xe8>
    8000262c:	00300513          	li	a0,3
    80002630:	c69ff0ef          	jal	ra,80002298 <terminate>
    80002634:	00100513          	li	a0,1
    80002638:	c61ff0ef          	jal	ra,80002298 <terminate>
    8000263c:	00001517          	auipc	a0,0x1
    80002640:	3dc50513          	addi	a0,a0,988 # 80003a18 <pass+0x1a0>
    80002644:	c0dff0ef          	jal	ra,80002250 <cputstring>
    80002648:	00300513          	li	a0,3
    8000264c:	c4dff0ef          	jal	ra,80002298 <terminate>
    80002650:	05052783          	lw	a5,80(a0)
    80002654:	00001937          	lui	s2,0x1
    80002658:	00002a97          	auipc	s5,0x2
    8000265c:	9a8a8a93          	addi	s5,s5,-1624 # 80004000 <user_mapping>
    80002660:	00f13423          	sd	a5,8(sp)
    80002664:	00003d17          	auipc	s10,0x3
    80002668:	99cd0d13          	addi	s10,s10,-1636 # 80005000 <pt>
    8000266c:	00040cb7          	lui	s9,0x40
    80002670:	ffe00c37          	lui	s8,0xffe00
    80002674:	00007a17          	auipc	s4,0x7
    80002678:	98ca0a13          	addi	s4,s4,-1652 # 80009000 <freelist_tail>
    8000267c:	00007b97          	auipc	s7,0x7
    80002680:	98cb8b93          	addi	s7,s7,-1652 # 80009008 <freelist_head>
    80002684:	0003fb37          	lui	s6,0x3f
    80002688:	00c95793          	srli	a5,s2,0xc
    8000268c:	00479493          	slli	s1,a5,0x4
    80002690:	009a8733          	add	a4,s5,s1
    80002694:	00073703          	ld	a4,0(a4)
    80002698:	08070c63          	beqz	a4,80002730 <handle_trap+0x218>
    8000269c:	60078793          	addi	a5,a5,1536
    800026a0:	00379793          	slli	a5,a5,0x3
    800026a4:	00fd07b3          	add	a5,s10,a5
    800026a8:	0007b983          	ld	s3,0(a5)
    800026ac:	0409f793          	andi	a5,s3,64
    800026b0:	0a078063          	beqz	a5,80002750 <handle_trap+0x238>
    800026b4:	100cadf3          	csrrs	s11,sstatus,s9
    800026b8:	01890433          	add	s0,s2,s8
    800026bc:	00001637          	lui	a2,0x1
    800026c0:	00040593          	mv	a1,s0
    800026c4:	00090513          	mv	a0,s2
    800026c8:	a61ff0ef          	jal	ra,80002128 <memcmp>
    800026cc:	04050463          	beqz	a0,80002714 <handle_trap+0x1fc>
    800026d0:	0809f993          	andi	s3,s3,128
    800026d4:	0a098063          	beqz	s3,80002774 <handle_trap+0x25c>
    800026d8:	000016b7          	lui	a3,0x1
    800026dc:	00040793          	mv	a5,s0
    800026e0:	00090713          	mv	a4,s2
    800026e4:	00d406b3          	add	a3,s0,a3
    800026e8:	0007b803          	ld	a6,0(a5)
    800026ec:	0087b503          	ld	a0,8(a5)
    800026f0:	0107b583          	ld	a1,16(a5)
    800026f4:	0187b603          	ld	a2,24(a5)
    800026f8:	01073023          	sd	a6,0(a4)
    800026fc:	00a73423          	sd	a0,8(a4)
    80002700:	00b73823          	sd	a1,16(a4)
    80002704:	00c73c23          	sd	a2,24(a4)
    80002708:	02078793          	addi	a5,a5,32
    8000270c:	02070713          	addi	a4,a4,32
    80002710:	fcd79ce3          	bne	a5,a3,800026e8 <handle_trap+0x1d0>
    80002714:	009a87b3          	add	a5,s5,s1
    80002718:	100d9073          	csrw	sstatus,s11
    8000271c:	000a3703          	ld	a4,0(s4)
    80002720:	0007b023          	sd	zero,0(a5)
    80002724:	02070063          	beqz	a4,80002744 <handle_trap+0x22c>
    80002728:	00f73423          	sd	a5,8(a4)
    8000272c:	00fa3023          	sd	a5,0(s4)
    80002730:	000017b7          	lui	a5,0x1
    80002734:	00f90933          	add	s2,s2,a5
    80002738:	f56918e3          	bne	s2,s6,80002688 <handle_trap+0x170>
    8000273c:	00813503          	ld	a0,8(sp)
    80002740:	b59ff0ef          	jal	ra,80002298 <terminate>
    80002744:	00fa3023          	sd	a5,0(s4)
    80002748:	00fbb023          	sd	a5,0(s7)
    8000274c:	fe5ff06f          	j	80002730 <handle_trap+0x218>
    80002750:	00001517          	auipc	a0,0x1
    80002754:	25850513          	addi	a0,a0,600 # 800039a8 <pass+0x130>
    80002758:	af9ff0ef          	jal	ra,80002250 <cputstring>
    8000275c:	00300513          	li	a0,3
    80002760:	b39ff0ef          	jal	ra,80002298 <terminate>
    80002764:	00001517          	auipc	a0,0x1
    80002768:	2dc50513          	addi	a0,a0,732 # 80003a40 <pass+0x1c8>
    8000276c:	ae5ff0ef          	jal	ra,80002250 <cputstring>
    80002770:	ebdff06f          	j	8000262c <handle_trap+0x114>
    80002774:	00001517          	auipc	a0,0x1
    80002778:	26c50513          	addi	a0,a0,620 # 800039e0 <pass+0x168>
    8000277c:	ad5ff0ef          	jal	ra,80002250 <cputstring>
    80002780:	00300513          	li	a0,3
    80002784:	b15ff0ef          	jal	ra,80002298 <terminate>

0000000080002788 <vm_boot>:
    80002788:	f14027f3          	csrr	a5,mhartid
    8000278c:	18079a63          	bnez	a5,80002920 <vm_boot+0x198>
    80002790:	00005797          	auipc	a5,0x5
    80002794:	87078793          	addi	a5,a5,-1936 # 80007000 <pt+0x2000>
    80002798:	ed010113          	addi	sp,sp,-304
    8000279c:	00c7d793          	srli	a5,a5,0xc
    800027a0:	12813023          	sd	s0,288(sp)
    800027a4:	00006817          	auipc	a6,0x6
    800027a8:	85c80813          	addi	a6,a6,-1956 # 80008000 <pt+0x3000>
    800027ac:	00050413          	mv	s0,a0
    800027b0:	00a79793          	slli	a5,a5,0xa
    800027b4:	00004517          	auipc	a0,0x4
    800027b8:	84c50513          	addi	a0,a0,-1972 # 80006000 <pt+0x1000>
    800027bc:	12113423          	sd	ra,296(sp)
    800027c0:	00c55693          	srli	a3,a0,0xc
    800027c4:	00c85713          	srli	a4,a6,0xc
    800027c8:	0017e793          	ori	a5,a5,1
    800027cc:	00003897          	auipc	a7,0x3
    800027d0:	83488893          	addi	a7,a7,-1996 # 80005000 <pt>
    800027d4:	fff00613          	li	a2,-1
    800027d8:	fef53c23          	sd	a5,-8(a0)
    800027dc:	00a69693          	slli	a3,a3,0xa
    800027e0:	00a71713          	slli	a4,a4,0xa
    800027e4:	200007b7          	lui	a5,0x20000
    800027e8:	0016e693          	ori	a3,a3,1
    800027ec:	00176713          	ori	a4,a4,1
    800027f0:	00c8d593          	srli	a1,a7,0xc
    800027f4:	03f61313          	slli	t1,a2,0x3f
    800027f8:	0cf78793          	addi	a5,a5,207 # 200000cf <_start-0x5fffff31>
    800027fc:	fef83c23          	sd	a5,-8(a6)
    80002800:	00d8b023          	sd	a3,0(a7)
    80002804:	00e53023          	sd	a4,0(a0)
    80002808:	0065e7b3          	or	a5,a1,t1
    8000280c:	18079073          	csrw	satp,a5
    80002810:	18002773          	csrr	a4,satp
    80002814:	14e79e63          	bne	a5,a4,80002970 <vm_boot+0x1e8>
    80002818:	00b65613          	srli	a2,a2,0xb
    8000281c:	01f00793          	li	a5,31
    80002820:	00000297          	auipc	t0,0x0
    80002824:	01428293          	addi	t0,t0,20 # 80002834 <vm_boot+0xac>
    80002828:	305292f3          	csrrw	t0,mtvec,t0
    8000282c:	3b061073          	csrw	pmpaddr0,a2
    80002830:	3a079073          	csrw	pmpcfg0,a5
    80002834:	30529073          	csrw	mtvec,t0
    80002838:	bff00813          	li	a6,-1025
    8000283c:	01581813          	slli	a6,a6,0x15
    80002840:	ffffe797          	auipc	a5,0xffffe
    80002844:	90478793          	addi	a5,a5,-1788 # 80000144 <trap_entry>
    80002848:	010787b3          	add	a5,a5,a6
    8000284c:	10579073          	csrw	stvec,a5
    80002850:	340027f3          	csrr	a5,mscratch
    80002854:	010787b3          	add	a5,a5,a6
    80002858:	14079073          	csrw	sscratch,a5
    8000285c:	0000b7b7          	lui	a5,0xb
    80002860:	1007879b          	addiw	a5,a5,256 # b100 <_start-0x7fff4f00>
    80002864:	30279073          	csrw	medeleg,a5
    80002868:	0001e7b7          	lui	a5,0x1e
    8000286c:	6007879b          	addiw	a5,a5,1536 # 1e600 <_start-0x7ffe1a00>
    80002870:	30079073          	csrw	mstatus,a5
    80002874:	30405073          	csrwi	mie,0
    80002878:	00002717          	auipc	a4,0x2
    8000287c:	b7870713          	addi	a4,a4,-1160 # 800043f0 <freelist_nodes>
    80002880:	3e080793          	addi	a5,a6,992
    80002884:	010706b3          	add	a3,a4,a6
    80002888:	00f707b3          	add	a5,a4,a5
    8000288c:	000808b7          	lui	a7,0x80
    80002890:	00006617          	auipc	a2,0x6
    80002894:	76d63c23          	sd	a3,1912(a2) # 80009008 <freelist_head>
    80002898:	00002317          	auipc	t1,0x2
    8000289c:	f4830313          	addi	t1,t1,-184 # 800047e0 <freelist_nodes+0x3f0>
    800028a0:	00006697          	auipc	a3,0x6
    800028a4:	76f6b023          	sd	a5,1888(a3) # 80009000 <freelist_tail>
    800028a8:	03f88893          	addi	a7,a7,63 # 8003f <_start-0x7ff7ffc1>
    800028ac:	00300793          	li	a5,3
    800028b0:	01080813          	addi	a6,a6,16
    800028b4:	0017d613          	srli	a2,a5,0x1
    800028b8:	011786b3          	add	a3,a5,a7
    800028bc:	00f647b3          	xor	a5,a2,a5
    800028c0:	010705b3          	add	a1,a4,a6
    800028c4:	00c69693          	slli	a3,a3,0xc
    800028c8:	00579793          	slli	a5,a5,0x5
    800028cc:	00d73023          	sd	a3,0(a4)
    800028d0:	00b73423          	sd	a1,8(a4)
    800028d4:	0207f793          	andi	a5,a5,32
    800028d8:	01070713          	addi	a4,a4,16
    800028dc:	00f667b3          	or	a5,a2,a5
    800028e0:	fce31ae3          	bne	t1,a4,800028b4 <vm_boot+0x12c>
    800028e4:	12000613          	li	a2,288
    800028e8:	00000593          	li	a1,0
    800028ec:	00010513          	mv	a0,sp
    800028f0:	00002797          	auipc	a5,0x2
    800028f4:	ee07b423          	sd	zero,-280(a5) # 800047d8 <freelist_nodes+0x3e8>
    800028f8:	f64ff0ef          	jal	ra,8000205c <memset>
    800028fc:	800007b7          	lui	a5,0x80000
    80002900:	00f40433          	add	s0,s0,a5
    80002904:	00010513          	mv	a0,sp
    80002908:	10813423          	sd	s0,264(sp)
    8000290c:	fb0fd0ef          	jal	ra,800000bc <pop_tf>
    80002910:	12813083          	ld	ra,296(sp)
    80002914:	12013403          	ld	s0,288(sp)
    80002918:	13010113          	addi	sp,sp,304
    8000291c:	00008067          	ret
    80002920:	00100713          	li	a4,1
    80002924:	0163a7b7          	lui	a5,0x163a
    80002928:	00080637          	lui	a2,0x80
    8000292c:	84d78793          	addi	a5,a5,-1971 # 163984d <_start-0x7e9c67b3>
    80002930:	ffc60613          	addi	a2,a2,-4 # 7fffc <_start-0x7ff80004>
    80002934:	01f71513          	slli	a0,a4,0x1f
    80002938:	03e71693          	slli	a3,a4,0x3e
    8000293c:	01c0006f          	j	80002958 <vm_boot+0x1d0>
    80002940:	0007202f          	amoadd.w	zero,zero,(a4)
    80002944:	0017d713          	srli	a4,a5,0x1
    80002948:	00e7c7b3          	xor	a5,a5,a4
    8000294c:	03e79793          	slli	a5,a5,0x3e
    80002950:	00d7f7b3          	and	a5,a5,a3
    80002954:	00e7e7b3          	or	a5,a5,a4
    80002958:	00c7f733          	and	a4,a5,a2
    8000295c:	0017f593          	andi	a1,a5,1
    80002960:	00a70733          	add	a4,a4,a0
    80002964:	fc059ee3          	bnez	a1,80002940 <vm_boot+0x1b8>
    80002968:	00072003          	lw	zero,0(a4)
    8000296c:	fd9ff06f          	j	80002944 <vm_boot+0x1bc>
    80002970:	00001517          	auipc	a0,0x1
    80002974:	10050513          	addi	a0,a0,256 # 80003a70 <pass+0x1f8>
    80002978:	8d9ff0ef          	jal	ra,80002250 <cputstring>
    8000297c:	00300513          	li	a0,3
    80002980:	919ff0ef          	jal	ra,80002298 <terminate>

0000000080002984 <extra_boot>:
    80002984:	00008067          	ret

0000000080002988 <userstart>:
    80002988:	00301073          	fscsr	zero

000000008000298c <test_10>:
    8000298c:	00a00193          	li	gp,10
    80002990:	002475b7          	lui	a1,0x247
    80002994:	8ad5859b          	addiw	a1,a1,-1875 # 2468ad <_start-0x7fdb9753>
    80002998:	00e59593          	slli	a1,a1,0xe
    8000299c:	c4d58593          	addi	a1,a1,-947
    800029a0:	00c59593          	slli	a1,a1,0xc
    800029a4:	5e758593          	addi	a1,a1,1511
    800029a8:	00d59593          	slli	a1,a1,0xd
    800029ac:	ef058593          	addi	a1,a1,-272
    800029b0:	00000613          	li	a2,0
    800029b4:	f20580d3          	fmv.d.x	ft1,a1
    800029b8:	f2060153          	fmv.d.x	ft2,a2
    800029bc:	22208053          	fsgnj.d	ft0,ft1,ft2
    800029c0:	e2000553          	fmv.x.d	a0,ft0
    800029c4:	002473b7          	lui	t2,0x247
    800029c8:	8ad3839b          	addiw	t2,t2,-1875 # 2468ad <_start-0x7fdb9753>
    800029cc:	00e39393          	slli	t2,t2,0xe
    800029d0:	c4d38393          	addi	t2,t2,-947
    800029d4:	00c39393          	slli	t2,t2,0xc
    800029d8:	5e738393          	addi	t2,t2,1511
    800029dc:	00d39393          	slli	t2,t2,0xd
    800029e0:	ef038393          	addi	t2,t2,-272
    800029e4:	687512e3          	bne	a0,t2,80003868 <fail>

00000000800029e8 <test_11>:
    800029e8:	00b00193          	li	gp,11
    800029ec:	002475b7          	lui	a1,0x247
    800029f0:	8ad5859b          	addiw	a1,a1,-1875 # 2468ad <_start-0x7fdb9753>
    800029f4:	00e59593          	slli	a1,a1,0xe
    800029f8:	c4d58593          	addi	a1,a1,-947
    800029fc:	00c59593          	slli	a1,a1,0xc
    80002a00:	5e758593          	addi	a1,a1,1511
    80002a04:	00d59593          	slli	a1,a1,0xd
    80002a08:	ef058593          	addi	a1,a1,-272
    80002a0c:	fff00613          	li	a2,-1
    80002a10:	f20580d3          	fmv.d.x	ft1,a1
    80002a14:	f2060153          	fmv.d.x	ft2,a2
    80002a18:	22208053          	fsgnj.d	ft0,ft1,ft2
    80002a1c:	e2000553          	fmv.x.d	a0,ft0
    80002a20:	ff2473b7          	lui	t2,0xff247
    80002a24:	8ad3839b          	addiw	t2,t2,-1875 # ffffffffff2468ad <freelist_head+0xffffffff7f23d8a5>
    80002a28:	00e39393          	slli	t2,t2,0xe
    80002a2c:	c4d38393          	addi	t2,t2,-947
    80002a30:	00c39393          	slli	t2,t2,0xc
    80002a34:	5e738393          	addi	t2,t2,1511
    80002a38:	00d39393          	slli	t2,t2,0xd
    80002a3c:	ef038393          	addi	t2,t2,-272
    80002a40:	627514e3          	bne	a0,t2,80003868 <fail>

0000000080002a44 <test_12>:
    80002a44:	00c00193          	li	gp,12
    80002a48:	ff2475b7          	lui	a1,0xff247
    80002a4c:	8ad5859b          	addiw	a1,a1,-1875 # ffffffffff2468ad <freelist_head+0xffffffff7f23d8a5>
    80002a50:	00e59593          	slli	a1,a1,0xe
    80002a54:	c4d58593          	addi	a1,a1,-947
    80002a58:	00c59593          	slli	a1,a1,0xc
    80002a5c:	5e758593          	addi	a1,a1,1511
    80002a60:	00d59593          	slli	a1,a1,0xd
    80002a64:	ef058593          	addi	a1,a1,-272
    80002a68:	00000613          	li	a2,0
    80002a6c:	f20580d3          	fmv.d.x	ft1,a1
    80002a70:	f2060153          	fmv.d.x	ft2,a2
    80002a74:	22208053          	fsgnj.d	ft0,ft1,ft2
    80002a78:	e2000553          	fmv.x.d	a0,ft0
    80002a7c:	002473b7          	lui	t2,0x247
    80002a80:	8ad3839b          	addiw	t2,t2,-1875 # 2468ad <_start-0x7fdb9753>
    80002a84:	00e39393          	slli	t2,t2,0xe
    80002a88:	c4d38393          	addi	t2,t2,-947
    80002a8c:	00c39393          	slli	t2,t2,0xc
    80002a90:	5e738393          	addi	t2,t2,1511
    80002a94:	00d39393          	slli	t2,t2,0xd
    80002a98:	ef038393          	addi	t2,t2,-272
    80002a9c:	5c7516e3          	bne	a0,t2,80003868 <fail>

0000000080002aa0 <test_13>:
    80002aa0:	00d00193          	li	gp,13
    80002aa4:	ff2475b7          	lui	a1,0xff247
    80002aa8:	8ad5859b          	addiw	a1,a1,-1875 # ffffffffff2468ad <freelist_head+0xffffffff7f23d8a5>
    80002aac:	00e59593          	slli	a1,a1,0xe
    80002ab0:	c4d58593          	addi	a1,a1,-947
    80002ab4:	00c59593          	slli	a1,a1,0xc
    80002ab8:	5e758593          	addi	a1,a1,1511
    80002abc:	00d59593          	slli	a1,a1,0xd
    80002ac0:	ef058593          	addi	a1,a1,-272
    80002ac4:	fff00613          	li	a2,-1
    80002ac8:	f20580d3          	fmv.d.x	ft1,a1
    80002acc:	f2060153          	fmv.d.x	ft2,a2
    80002ad0:	22208053          	fsgnj.d	ft0,ft1,ft2
    80002ad4:	e2000553          	fmv.x.d	a0,ft0
    80002ad8:	ff2473b7          	lui	t2,0xff247
    80002adc:	8ad3839b          	addiw	t2,t2,-1875 # ffffffffff2468ad <freelist_head+0xffffffff7f23d8a5>
    80002ae0:	00e39393          	slli	t2,t2,0xe
    80002ae4:	c4d38393          	addi	t2,t2,-947
    80002ae8:	00c39393          	slli	t2,t2,0xc
    80002aec:	5e738393          	addi	t2,t2,1511
    80002af0:	00d39393          	slli	t2,t2,0xd
    80002af4:	ef038393          	addi	t2,t2,-272
    80002af8:	567518e3          	bne	a0,t2,80003868 <fail>

0000000080002afc <test_20>:
    80002afc:	01400193          	li	gp,20
    80002b00:	002475b7          	lui	a1,0x247
    80002b04:	8ad5859b          	addiw	a1,a1,-1875 # 2468ad <_start-0x7fdb9753>
    80002b08:	00e59593          	slli	a1,a1,0xe
    80002b0c:	c4d58593          	addi	a1,a1,-947
    80002b10:	00c59593          	slli	a1,a1,0xc
    80002b14:	5e758593          	addi	a1,a1,1511
    80002b18:	00d59593          	slli	a1,a1,0xd
    80002b1c:	ef058593          	addi	a1,a1,-272
    80002b20:	00000613          	li	a2,0
    80002b24:	f20580d3          	fmv.d.x	ft1,a1
    80002b28:	f2060153          	fmv.d.x	ft2,a2
    80002b2c:	22209053          	fsgnjn.d	ft0,ft1,ft2
    80002b30:	e2000553          	fmv.x.d	a0,ft0
    80002b34:	ff2473b7          	lui	t2,0xff247
    80002b38:	8ad3839b          	addiw	t2,t2,-1875 # ffffffffff2468ad <freelist_head+0xffffffff7f23d8a5>
    80002b3c:	00e39393          	slli	t2,t2,0xe
    80002b40:	c4d38393          	addi	t2,t2,-947
    80002b44:	00c39393          	slli	t2,t2,0xc
    80002b48:	5e738393          	addi	t2,t2,1511
    80002b4c:	00d39393          	slli	t2,t2,0xd
    80002b50:	ef038393          	addi	t2,t2,-272
    80002b54:	50751ae3          	bne	a0,t2,80003868 <fail>

0000000080002b58 <test_21>:
    80002b58:	01500193          	li	gp,21
    80002b5c:	002475b7          	lui	a1,0x247
    80002b60:	8ad5859b          	addiw	a1,a1,-1875 # 2468ad <_start-0x7fdb9753>
    80002b64:	00e59593          	slli	a1,a1,0xe
    80002b68:	c4d58593          	addi	a1,a1,-947
    80002b6c:	00c59593          	slli	a1,a1,0xc
    80002b70:	5e758593          	addi	a1,a1,1511
    80002b74:	00d59593          	slli	a1,a1,0xd
    80002b78:	ef058593          	addi	a1,a1,-272
    80002b7c:	fff00613          	li	a2,-1
    80002b80:	f20580d3          	fmv.d.x	ft1,a1
    80002b84:	f2060153          	fmv.d.x	ft2,a2
    80002b88:	22209053          	fsgnjn.d	ft0,ft1,ft2
    80002b8c:	e2000553          	fmv.x.d	a0,ft0
    80002b90:	002473b7          	lui	t2,0x247
    80002b94:	8ad3839b          	addiw	t2,t2,-1875 # 2468ad <_start-0x7fdb9753>
    80002b98:	00e39393          	slli	t2,t2,0xe
    80002b9c:	c4d38393          	addi	t2,t2,-947
    80002ba0:	00c39393          	slli	t2,t2,0xc
    80002ba4:	5e738393          	addi	t2,t2,1511
    80002ba8:	00d39393          	slli	t2,t2,0xd
    80002bac:	ef038393          	addi	t2,t2,-272
    80002bb0:	4a751ce3          	bne	a0,t2,80003868 <fail>

0000000080002bb4 <test_22>:
    80002bb4:	01600193          	li	gp,22
    80002bb8:	ff2475b7          	lui	a1,0xff247
    80002bbc:	8ad5859b          	addiw	a1,a1,-1875 # ffffffffff2468ad <freelist_head+0xffffffff7f23d8a5>
    80002bc0:	00e59593          	slli	a1,a1,0xe
    80002bc4:	c4d58593          	addi	a1,a1,-947
    80002bc8:	00c59593          	slli	a1,a1,0xc
    80002bcc:	5e758593          	addi	a1,a1,1511
    80002bd0:	00d59593          	slli	a1,a1,0xd
    80002bd4:	ef058593          	addi	a1,a1,-272
    80002bd8:	00000613          	li	a2,0
    80002bdc:	f20580d3          	fmv.d.x	ft1,a1
    80002be0:	f2060153          	fmv.d.x	ft2,a2
    80002be4:	22209053          	fsgnjn.d	ft0,ft1,ft2
    80002be8:	e2000553          	fmv.x.d	a0,ft0
    80002bec:	ff2473b7          	lui	t2,0xff247
    80002bf0:	8ad3839b          	addiw	t2,t2,-1875 # ffffffffff2468ad <freelist_head+0xffffffff7f23d8a5>
    80002bf4:	00e39393          	slli	t2,t2,0xe
    80002bf8:	c4d38393          	addi	t2,t2,-947
    80002bfc:	00c39393          	slli	t2,t2,0xc
    80002c00:	5e738393          	addi	t2,t2,1511
    80002c04:	00d39393          	slli	t2,t2,0xd
    80002c08:	ef038393          	addi	t2,t2,-272
    80002c0c:	44751ee3          	bne	a0,t2,80003868 <fail>

0000000080002c10 <test_23>:
    80002c10:	01700193          	li	gp,23
    80002c14:	ff2475b7          	lui	a1,0xff247
    80002c18:	8ad5859b          	addiw	a1,a1,-1875 # ffffffffff2468ad <freelist_head+0xffffffff7f23d8a5>
    80002c1c:	00e59593          	slli	a1,a1,0xe
    80002c20:	c4d58593          	addi	a1,a1,-947
    80002c24:	00c59593          	slli	a1,a1,0xc
    80002c28:	5e758593          	addi	a1,a1,1511
    80002c2c:	00d59593          	slli	a1,a1,0xd
    80002c30:	ef058593          	addi	a1,a1,-272
    80002c34:	fff00613          	li	a2,-1
    80002c38:	f20580d3          	fmv.d.x	ft1,a1
    80002c3c:	f2060153          	fmv.d.x	ft2,a2
    80002c40:	22209053          	fsgnjn.d	ft0,ft1,ft2
    80002c44:	e2000553          	fmv.x.d	a0,ft0
    80002c48:	002473b7          	lui	t2,0x247
    80002c4c:	8ad3839b          	addiw	t2,t2,-1875 # 2468ad <_start-0x7fdb9753>
    80002c50:	00e39393          	slli	t2,t2,0xe
    80002c54:	c4d38393          	addi	t2,t2,-947
    80002c58:	00c39393          	slli	t2,t2,0xc
    80002c5c:	5e738393          	addi	t2,t2,1511
    80002c60:	00d39393          	slli	t2,t2,0xd
    80002c64:	ef038393          	addi	t2,t2,-272
    80002c68:	407510e3          	bne	a0,t2,80003868 <fail>

0000000080002c6c <test_30>:
    80002c6c:	01e00193          	li	gp,30
    80002c70:	002475b7          	lui	a1,0x247
    80002c74:	8ad5859b          	addiw	a1,a1,-1875 # 2468ad <_start-0x7fdb9753>
    80002c78:	00e59593          	slli	a1,a1,0xe
    80002c7c:	c4d58593          	addi	a1,a1,-947
    80002c80:	00c59593          	slli	a1,a1,0xc
    80002c84:	5e758593          	addi	a1,a1,1511
    80002c88:	00d59593          	slli	a1,a1,0xd
    80002c8c:	ef058593          	addi	a1,a1,-272
    80002c90:	00000613          	li	a2,0
    80002c94:	f20580d3          	fmv.d.x	ft1,a1
    80002c98:	f2060153          	fmv.d.x	ft2,a2
    80002c9c:	2220a053          	fsgnjx.d	ft0,ft1,ft2
    80002ca0:	e2000553          	fmv.x.d	a0,ft0
    80002ca4:	002473b7          	lui	t2,0x247
    80002ca8:	8ad3839b          	addiw	t2,t2,-1875 # 2468ad <_start-0x7fdb9753>
    80002cac:	00e39393          	slli	t2,t2,0xe
    80002cb0:	c4d38393          	addi	t2,t2,-947
    80002cb4:	00c39393          	slli	t2,t2,0xc
    80002cb8:	5e738393          	addi	t2,t2,1511
    80002cbc:	00d39393          	slli	t2,t2,0xd
    80002cc0:	ef038393          	addi	t2,t2,-272
    80002cc4:	3a7512e3          	bne	a0,t2,80003868 <fail>

0000000080002cc8 <test_31>:
    80002cc8:	01f00193          	li	gp,31
    80002ccc:	002475b7          	lui	a1,0x247
    80002cd0:	8ad5859b          	addiw	a1,a1,-1875 # 2468ad <_start-0x7fdb9753>
    80002cd4:	00e59593          	slli	a1,a1,0xe
    80002cd8:	c4d58593          	addi	a1,a1,-947
    80002cdc:	00c59593          	slli	a1,a1,0xc
    80002ce0:	5e758593          	addi	a1,a1,1511
    80002ce4:	00d59593          	slli	a1,a1,0xd
    80002ce8:	ef058593          	addi	a1,a1,-272
    80002cec:	fff00613          	li	a2,-1
    80002cf0:	f20580d3          	fmv.d.x	ft1,a1
    80002cf4:	f2060153          	fmv.d.x	ft2,a2
    80002cf8:	2220a053          	fsgnjx.d	ft0,ft1,ft2
    80002cfc:	e2000553          	fmv.x.d	a0,ft0
    80002d00:	ff2473b7          	lui	t2,0xff247
    80002d04:	8ad3839b          	addiw	t2,t2,-1875 # ffffffffff2468ad <freelist_head+0xffffffff7f23d8a5>
    80002d08:	00e39393          	slli	t2,t2,0xe
    80002d0c:	c4d38393          	addi	t2,t2,-947
    80002d10:	00c39393          	slli	t2,t2,0xc
    80002d14:	5e738393          	addi	t2,t2,1511
    80002d18:	00d39393          	slli	t2,t2,0xd
    80002d1c:	ef038393          	addi	t2,t2,-272
    80002d20:	347514e3          	bne	a0,t2,80003868 <fail>

0000000080002d24 <test_32>:
    80002d24:	02000193          	li	gp,32
    80002d28:	ff2475b7          	lui	a1,0xff247
    80002d2c:	8ad5859b          	addiw	a1,a1,-1875 # ffffffffff2468ad <freelist_head+0xffffffff7f23d8a5>
    80002d30:	00e59593          	slli	a1,a1,0xe
    80002d34:	c4d58593          	addi	a1,a1,-947
    80002d38:	00c59593          	slli	a1,a1,0xc
    80002d3c:	5e758593          	addi	a1,a1,1511
    80002d40:	00d59593          	slli	a1,a1,0xd
    80002d44:	ef058593          	addi	a1,a1,-272
    80002d48:	00000613          	li	a2,0
    80002d4c:	f20580d3          	fmv.d.x	ft1,a1
    80002d50:	f2060153          	fmv.d.x	ft2,a2
    80002d54:	2220a053          	fsgnjx.d	ft0,ft1,ft2
    80002d58:	e2000553          	fmv.x.d	a0,ft0
    80002d5c:	ff2473b7          	lui	t2,0xff247
    80002d60:	8ad3839b          	addiw	t2,t2,-1875 # ffffffffff2468ad <freelist_head+0xffffffff7f23d8a5>
    80002d64:	00e39393          	slli	t2,t2,0xe
    80002d68:	c4d38393          	addi	t2,t2,-947
    80002d6c:	00c39393          	slli	t2,t2,0xc
    80002d70:	5e738393          	addi	t2,t2,1511
    80002d74:	00d39393          	slli	t2,t2,0xd
    80002d78:	ef038393          	addi	t2,t2,-272
    80002d7c:	2e7516e3          	bne	a0,t2,80003868 <fail>

0000000080002d80 <test_33>:
    80002d80:	02100193          	li	gp,33
    80002d84:	ff2475b7          	lui	a1,0xff247
    80002d88:	8ad5859b          	addiw	a1,a1,-1875 # ffffffffff2468ad <freelist_head+0xffffffff7f23d8a5>
    80002d8c:	00e59593          	slli	a1,a1,0xe
    80002d90:	c4d58593          	addi	a1,a1,-947
    80002d94:	00c59593          	slli	a1,a1,0xc
    80002d98:	5e758593          	addi	a1,a1,1511
    80002d9c:	00d59593          	slli	a1,a1,0xd
    80002da0:	ef058593          	addi	a1,a1,-272
    80002da4:	fff00613          	li	a2,-1
    80002da8:	f20580d3          	fmv.d.x	ft1,a1
    80002dac:	f2060153          	fmv.d.x	ft2,a2
    80002db0:	2220a053          	fsgnjx.d	ft0,ft1,ft2
    80002db4:	e2000553          	fmv.x.d	a0,ft0
    80002db8:	002473b7          	lui	t2,0x247
    80002dbc:	8ad3839b          	addiw	t2,t2,-1875 # 2468ad <_start-0x7fdb9753>
    80002dc0:	00e39393          	slli	t2,t2,0xe
    80002dc4:	c4d38393          	addi	t2,t2,-947
    80002dc8:	00c39393          	slli	t2,t2,0xc
    80002dcc:	5e738393          	addi	t2,t2,1511
    80002dd0:	00d39393          	slli	t2,t2,0xd
    80002dd4:	ef038393          	addi	t2,t2,-272
    80002dd8:	287518e3          	bne	a0,t2,80003868 <fail>

0000000080002ddc <test_40>:
    80002ddc:	02800193          	li	gp,40
    80002de0:	0010059b          	addiw	a1,zero,1
    80002de4:	02659593          	slli	a1,a1,0x26
    80002de8:	f0958593          	addi	a1,a1,-247
    80002dec:	00d59593          	slli	a1,a1,0xd
    80002df0:	34558593          	addi	a1,a1,837
    80002df4:	00c59593          	slli	a1,a1,0xc
    80002df8:	67858593          	addi	a1,a1,1656
    80002dfc:	00000613          	li	a2,0
    80002e00:	f20580d3          	fmv.d.x	ft1,a1
    80002e04:	f2060153          	fmv.d.x	ft2,a2
    80002e08:	20208053          	fsgnj.s	ft0,ft1,ft2
    80002e0c:	e0000553          	fmv.x.w	a0,ft0
    80002e10:	7fc003b7          	lui	t2,0x7fc00
    80002e14:	24751ae3          	bne	a0,t2,80003868 <fail>

0000000080002e18 <test_140>:
    80002e18:	08c00193          	li	gp,140
    80002e1c:	0010059b          	addiw	a1,zero,1
    80002e20:	02659593          	slli	a1,a1,0x26
    80002e24:	f0958593          	addi	a1,a1,-247
    80002e28:	00d59593          	slli	a1,a1,0xd
    80002e2c:	34558593          	addi	a1,a1,837
    80002e30:	00c59593          	slli	a1,a1,0xc
    80002e34:	67858593          	addi	a1,a1,1656
    80002e38:	00000613          	li	a2,0
    80002e3c:	f20580d3          	fmv.d.x	ft1,a1
    80002e40:	f2060153          	fmv.d.x	ft2,a2
    80002e44:	20208053          	fsgnj.s	ft0,ft1,ft2
    80002e48:	e2000553          	fmv.x.d	a0,ft0
    80002e4c:	dff0039b          	addiw	t2,zero,-513
    80002e50:	01639393          	slli	t2,t2,0x16
    80002e54:	20751ae3          	bne	a0,t2,80003868 <fail>

0000000080002e58 <test_41>:
    80002e58:	02900193          	li	gp,41
    80002e5c:	ffe125b7          	lui	a1,0xffe12
    80002e60:	3455859b          	addiw	a1,a1,837 # ffffffffffe12345 <freelist_head+0xffffffff7fe0933d>
    80002e64:	00c59593          	slli	a1,a1,0xc
    80002e68:	67858593          	addi	a1,a1,1656
    80002e6c:	00000613          	li	a2,0
    80002e70:	f20580d3          	fmv.d.x	ft1,a1
    80002e74:	f2060153          	fmv.d.x	ft2,a2
    80002e78:	20208053          	fsgnj.s	ft0,ft1,ft2
    80002e7c:	e0000553          	fmv.x.w	a0,ft0
    80002e80:	7fc003b7          	lui	t2,0x7fc00
    80002e84:	1e7512e3          	bne	a0,t2,80003868 <fail>

0000000080002e88 <test_141>:
    80002e88:	08d00193          	li	gp,141
    80002e8c:	ffe125b7          	lui	a1,0xffe12
    80002e90:	3455859b          	addiw	a1,a1,837 # ffffffffffe12345 <freelist_head+0xffffffff7fe0933d>
    80002e94:	00c59593          	slli	a1,a1,0xc
    80002e98:	67858593          	addi	a1,a1,1656
    80002e9c:	00000613          	li	a2,0
    80002ea0:	f20580d3          	fmv.d.x	ft1,a1
    80002ea4:	f2060153          	fmv.d.x	ft2,a2
    80002ea8:	20208053          	fsgnj.s	ft0,ft1,ft2
    80002eac:	e2000553          	fmv.x.d	a0,ft0
    80002eb0:	dff0039b          	addiw	t2,zero,-513
    80002eb4:	01639393          	slli	t2,t2,0x16
    80002eb8:	1a7518e3          	bne	a0,t2,80003868 <fail>

0000000080002ebc <test_42>:
    80002ebc:	02a00193          	li	gp,42
    80002ec0:	0010059b          	addiw	a1,zero,1
    80002ec4:	02659593          	slli	a1,a1,0x26
    80002ec8:	f8958593          	addi	a1,a1,-119
    80002ecc:	00d59593          	slli	a1,a1,0xd
    80002ed0:	34558593          	addi	a1,a1,837
    80002ed4:	00c59593          	slli	a1,a1,0xc
    80002ed8:	67858593          	addi	a1,a1,1656
    80002edc:	00000613          	li	a2,0
    80002ee0:	f20580d3          	fmv.d.x	ft1,a1
    80002ee4:	f2060153          	fmv.d.x	ft2,a2
    80002ee8:	20208053          	fsgnj.s	ft0,ft1,ft2
    80002eec:	e0000553          	fmv.x.w	a0,ft0
    80002ef0:	7fc003b7          	lui	t2,0x7fc00
    80002ef4:	16751ae3          	bne	a0,t2,80003868 <fail>

0000000080002ef8 <test_142>:
    80002ef8:	08e00193          	li	gp,142
    80002efc:	0010059b          	addiw	a1,zero,1
    80002f00:	02659593          	slli	a1,a1,0x26
    80002f04:	f8958593          	addi	a1,a1,-119
    80002f08:	00d59593          	slli	a1,a1,0xd
    80002f0c:	34558593          	addi	a1,a1,837
    80002f10:	00c59593          	slli	a1,a1,0xc
    80002f14:	67858593          	addi	a1,a1,1656
    80002f18:	00000613          	li	a2,0
    80002f1c:	f20580d3          	fmv.d.x	ft1,a1
    80002f20:	f2060153          	fmv.d.x	ft2,a2
    80002f24:	20208053          	fsgnj.s	ft0,ft1,ft2
    80002f28:	e2000553          	fmv.x.d	a0,ft0
    80002f2c:	dff0039b          	addiw	t2,zero,-513
    80002f30:	01639393          	slli	t2,t2,0x16
    80002f34:	12751ae3          	bne	a0,t2,80003868 <fail>

0000000080002f38 <test_43>:
    80002f38:	02b00193          	li	gp,43
    80002f3c:	fff125b7          	lui	a1,0xfff12
    80002f40:	3455859b          	addiw	a1,a1,837 # fffffffffff12345 <freelist_head+0xffffffff7ff0933d>
    80002f44:	00c59593          	slli	a1,a1,0xc
    80002f48:	67858593          	addi	a1,a1,1656
    80002f4c:	00000613          	li	a2,0
    80002f50:	f20580d3          	fmv.d.x	ft1,a1
    80002f54:	f2060153          	fmv.d.x	ft2,a2
    80002f58:	20208053          	fsgnj.s	ft0,ft1,ft2
    80002f5c:	e0000553          	fmv.x.w	a0,ft0
    80002f60:	123453b7          	lui	t2,0x12345
    80002f64:	6783839b          	addiw	t2,t2,1656 # 12345678 <_start-0x6dcba988>
    80002f68:	107510e3          	bne	a0,t2,80003868 <fail>

0000000080002f6c <test_143>:
    80002f6c:	08f00193          	li	gp,143
    80002f70:	fff125b7          	lui	a1,0xfff12
    80002f74:	3455859b          	addiw	a1,a1,837 # fffffffffff12345 <freelist_head+0xffffffff7ff0933d>
    80002f78:	00c59593          	slli	a1,a1,0xc
    80002f7c:	67858593          	addi	a1,a1,1656
    80002f80:	00000613          	li	a2,0
    80002f84:	f20580d3          	fmv.d.x	ft1,a1
    80002f88:	f2060153          	fmv.d.x	ft2,a2
    80002f8c:	20208053          	fsgnj.s	ft0,ft1,ft2
    80002f90:	e2000553          	fmv.x.d	a0,ft0
    80002f94:	fff123b7          	lui	t2,0xfff12
    80002f98:	3453839b          	addiw	t2,t2,837 # fffffffffff12345 <freelist_head+0xffffffff7ff0933d>
    80002f9c:	00c39393          	slli	t2,t2,0xc
    80002fa0:	67838393          	addi	t2,t2,1656
    80002fa4:	0c7512e3          	bne	a0,t2,80003868 <fail>

0000000080002fa8 <test_50>:
    80002fa8:	03200193          	li	gp,50
    80002fac:	0010059b          	addiw	a1,zero,1
    80002fb0:	02659593          	slli	a1,a1,0x26
    80002fb4:	f0958593          	addi	a1,a1,-247
    80002fb8:	00d59593          	slli	a1,a1,0xd
    80002fbc:	34558593          	addi	a1,a1,837
    80002fc0:	00c59593          	slli	a1,a1,0xc
    80002fc4:	67858593          	addi	a1,a1,1656
    80002fc8:	0010061b          	addiw	a2,zero,1
    80002fcc:	01f61613          	slli	a2,a2,0x1f
    80002fd0:	f20580d3          	fmv.d.x	ft1,a1
    80002fd4:	f2060153          	fmv.d.x	ft2,a2
    80002fd8:	20208053          	fsgnj.s	ft0,ft1,ft2
    80002fdc:	e0000553          	fmv.x.w	a0,ft0
    80002fe0:	7fc003b7          	lui	t2,0x7fc00
    80002fe4:	087512e3          	bne	a0,t2,80003868 <fail>

0000000080002fe8 <test_150>:
    80002fe8:	09600193          	li	gp,150
    80002fec:	0010059b          	addiw	a1,zero,1
    80002ff0:	02659593          	slli	a1,a1,0x26
    80002ff4:	f0958593          	addi	a1,a1,-247
    80002ff8:	00d59593          	slli	a1,a1,0xd
    80002ffc:	34558593          	addi	a1,a1,837
    80003000:	00c59593          	slli	a1,a1,0xc
    80003004:	67858593          	addi	a1,a1,1656
    80003008:	0010061b          	addiw	a2,zero,1
    8000300c:	01f61613          	slli	a2,a2,0x1f
    80003010:	f20580d3          	fmv.d.x	ft1,a1
    80003014:	f2060153          	fmv.d.x	ft2,a2
    80003018:	20208053          	fsgnj.s	ft0,ft1,ft2
    8000301c:	e2000553          	fmv.x.d	a0,ft0
    80003020:	dff0039b          	addiw	t2,zero,-513
    80003024:	01639393          	slli	t2,t2,0x16
    80003028:	047510e3          	bne	a0,t2,80003868 <fail>

000000008000302c <test_51>:
    8000302c:	03300193          	li	gp,51
    80003030:	ffe125b7          	lui	a1,0xffe12
    80003034:	3455859b          	addiw	a1,a1,837 # ffffffffffe12345 <freelist_head+0xffffffff7fe0933d>
    80003038:	00c59593          	slli	a1,a1,0xc
    8000303c:	67858593          	addi	a1,a1,1656
    80003040:	0010061b          	addiw	a2,zero,1
    80003044:	01f61613          	slli	a2,a2,0x1f
    80003048:	f20580d3          	fmv.d.x	ft1,a1
    8000304c:	f2060153          	fmv.d.x	ft2,a2
    80003050:	20208053          	fsgnj.s	ft0,ft1,ft2
    80003054:	e0000553          	fmv.x.w	a0,ft0
    80003058:	7fc003b7          	lui	t2,0x7fc00
    8000305c:	007516e3          	bne	a0,t2,80003868 <fail>

0000000080003060 <test_151>:
    80003060:	09700193          	li	gp,151
    80003064:	ffe125b7          	lui	a1,0xffe12
    80003068:	3455859b          	addiw	a1,a1,837 # ffffffffffe12345 <freelist_head+0xffffffff7fe0933d>
    8000306c:	00c59593          	slli	a1,a1,0xc
    80003070:	67858593          	addi	a1,a1,1656
    80003074:	0010061b          	addiw	a2,zero,1
    80003078:	01f61613          	slli	a2,a2,0x1f
    8000307c:	f20580d3          	fmv.d.x	ft1,a1
    80003080:	f2060153          	fmv.d.x	ft2,a2
    80003084:	20208053          	fsgnj.s	ft0,ft1,ft2
    80003088:	e2000553          	fmv.x.d	a0,ft0
    8000308c:	dff0039b          	addiw	t2,zero,-513
    80003090:	01639393          	slli	t2,t2,0x16
    80003094:	7c751a63          	bne	a0,t2,80003868 <fail>

0000000080003098 <test_52>:
    80003098:	03400193          	li	gp,52
    8000309c:	0010059b          	addiw	a1,zero,1
    800030a0:	02659593          	slli	a1,a1,0x26
    800030a4:	f8958593          	addi	a1,a1,-119
    800030a8:	00d59593          	slli	a1,a1,0xd
    800030ac:	34558593          	addi	a1,a1,837
    800030b0:	00c59593          	slli	a1,a1,0xc
    800030b4:	67858593          	addi	a1,a1,1656
    800030b8:	0010061b          	addiw	a2,zero,1
    800030bc:	01f61613          	slli	a2,a2,0x1f
    800030c0:	f20580d3          	fmv.d.x	ft1,a1
    800030c4:	f2060153          	fmv.d.x	ft2,a2
    800030c8:	20208053          	fsgnj.s	ft0,ft1,ft2
    800030cc:	e0000553          	fmv.x.w	a0,ft0
    800030d0:	7fc003b7          	lui	t2,0x7fc00
    800030d4:	78751a63          	bne	a0,t2,80003868 <fail>

00000000800030d8 <test_152>:
    800030d8:	09800193          	li	gp,152
    800030dc:	0010059b          	addiw	a1,zero,1
    800030e0:	02659593          	slli	a1,a1,0x26
    800030e4:	f8958593          	addi	a1,a1,-119
    800030e8:	00d59593          	slli	a1,a1,0xd
    800030ec:	34558593          	addi	a1,a1,837
    800030f0:	00c59593          	slli	a1,a1,0xc
    800030f4:	67858593          	addi	a1,a1,1656
    800030f8:	0010061b          	addiw	a2,zero,1
    800030fc:	01f61613          	slli	a2,a2,0x1f
    80003100:	f20580d3          	fmv.d.x	ft1,a1
    80003104:	f2060153          	fmv.d.x	ft2,a2
    80003108:	20208053          	fsgnj.s	ft0,ft1,ft2
    8000310c:	e2000553          	fmv.x.d	a0,ft0
    80003110:	dff0039b          	addiw	t2,zero,-513
    80003114:	01639393          	slli	t2,t2,0x16
    80003118:	74751863          	bne	a0,t2,80003868 <fail>

000000008000311c <test_53>:
    8000311c:	03500193          	li	gp,53
    80003120:	fff125b7          	lui	a1,0xfff12
    80003124:	3455859b          	addiw	a1,a1,837 # fffffffffff12345 <freelist_head+0xffffffff7ff0933d>
    80003128:	00c59593          	slli	a1,a1,0xc
    8000312c:	67858593          	addi	a1,a1,1656
    80003130:	0010061b          	addiw	a2,zero,1
    80003134:	01f61613          	slli	a2,a2,0x1f
    80003138:	f20580d3          	fmv.d.x	ft1,a1
    8000313c:	f2060153          	fmv.d.x	ft2,a2
    80003140:	20208053          	fsgnj.s	ft0,ft1,ft2
    80003144:	e0000553          	fmv.x.w	a0,ft0
    80003148:	123453b7          	lui	t2,0x12345
    8000314c:	6783839b          	addiw	t2,t2,1656 # 12345678 <_start-0x6dcba988>
    80003150:	70751c63          	bne	a0,t2,80003868 <fail>

0000000080003154 <test_153>:
    80003154:	09900193          	li	gp,153
    80003158:	fff125b7          	lui	a1,0xfff12
    8000315c:	3455859b          	addiw	a1,a1,837 # fffffffffff12345 <freelist_head+0xffffffff7ff0933d>
    80003160:	00c59593          	slli	a1,a1,0xc
    80003164:	67858593          	addi	a1,a1,1656
    80003168:	0010061b          	addiw	a2,zero,1
    8000316c:	01f61613          	slli	a2,a2,0x1f
    80003170:	f20580d3          	fmv.d.x	ft1,a1
    80003174:	f2060153          	fmv.d.x	ft2,a2
    80003178:	20208053          	fsgnj.s	ft0,ft1,ft2
    8000317c:	e2000553          	fmv.x.d	a0,ft0
    80003180:	fff123b7          	lui	t2,0xfff12
    80003184:	3453839b          	addiw	t2,t2,837 # fffffffffff12345 <freelist_head+0xffffffff7ff0933d>
    80003188:	00c39393          	slli	t2,t2,0xc
    8000318c:	67838393          	addi	t2,t2,1656
    80003190:	6c751c63          	bne	a0,t2,80003868 <fail>

0000000080003194 <test_60>:
    80003194:	03c00193          	li	gp,60
    80003198:	0010059b          	addiw	a1,zero,1
    8000319c:	02659593          	slli	a1,a1,0x26
    800031a0:	f0958593          	addi	a1,a1,-247
    800031a4:	00d59593          	slli	a1,a1,0xd
    800031a8:	34558593          	addi	a1,a1,837
    800031ac:	00c59593          	slli	a1,a1,0xc
    800031b0:	67858593          	addi	a1,a1,1656
    800031b4:	80000637          	lui	a2,0x80000
    800031b8:	f20580d3          	fmv.d.x	ft1,a1
    800031bc:	f2060153          	fmv.d.x	ft2,a2
    800031c0:	20208053          	fsgnj.s	ft0,ft1,ft2
    800031c4:	e0000553          	fmv.x.w	a0,ft0
    800031c8:	ffc003b7          	lui	t2,0xffc00
    800031cc:	68751e63          	bne	a0,t2,80003868 <fail>

00000000800031d0 <test_160>:
    800031d0:	0a000193          	li	gp,160
    800031d4:	0010059b          	addiw	a1,zero,1
    800031d8:	02659593          	slli	a1,a1,0x26
    800031dc:	f0958593          	addi	a1,a1,-247
    800031e0:	00d59593          	slli	a1,a1,0xd
    800031e4:	34558593          	addi	a1,a1,837
    800031e8:	00c59593          	slli	a1,a1,0xc
    800031ec:	67858593          	addi	a1,a1,1656
    800031f0:	80000637          	lui	a2,0x80000
    800031f4:	f20580d3          	fmv.d.x	ft1,a1
    800031f8:	f2060153          	fmv.d.x	ft2,a2
    800031fc:	20208053          	fsgnj.s	ft0,ft1,ft2
    80003200:	e2000553          	fmv.x.d	a0,ft0
    80003204:	ffc003b7          	lui	t2,0xffc00
    80003208:	66751063          	bne	a0,t2,80003868 <fail>

000000008000320c <test_61>:
    8000320c:	03d00193          	li	gp,61
    80003210:	ffe125b7          	lui	a1,0xffe12
    80003214:	3455859b          	addiw	a1,a1,837 # ffffffffffe12345 <freelist_head+0xffffffff7fe0933d>
    80003218:	00c59593          	slli	a1,a1,0xc
    8000321c:	67858593          	addi	a1,a1,1656
    80003220:	80000637          	lui	a2,0x80000
    80003224:	f20580d3          	fmv.d.x	ft1,a1
    80003228:	f2060153          	fmv.d.x	ft2,a2
    8000322c:	20208053          	fsgnj.s	ft0,ft1,ft2
    80003230:	e0000553          	fmv.x.w	a0,ft0
    80003234:	ffc003b7          	lui	t2,0xffc00
    80003238:	62751863          	bne	a0,t2,80003868 <fail>

000000008000323c <test_161>:
    8000323c:	0a100193          	li	gp,161
    80003240:	ffe125b7          	lui	a1,0xffe12
    80003244:	3455859b          	addiw	a1,a1,837 # ffffffffffe12345 <freelist_head+0xffffffff7fe0933d>
    80003248:	00c59593          	slli	a1,a1,0xc
    8000324c:	67858593          	addi	a1,a1,1656
    80003250:	80000637          	lui	a2,0x80000
    80003254:	f20580d3          	fmv.d.x	ft1,a1
    80003258:	f2060153          	fmv.d.x	ft2,a2
    8000325c:	20208053          	fsgnj.s	ft0,ft1,ft2
    80003260:	e2000553          	fmv.x.d	a0,ft0
    80003264:	ffc003b7          	lui	t2,0xffc00
    80003268:	60751063          	bne	a0,t2,80003868 <fail>

000000008000326c <test_62>:
    8000326c:	03e00193          	li	gp,62
    80003270:	fff125b7          	lui	a1,0xfff12
    80003274:	3455859b          	addiw	a1,a1,837 # fffffffffff12345 <freelist_head+0xffffffff7ff0933d>
    80003278:	00c59593          	slli	a1,a1,0xc
    8000327c:	67858593          	addi	a1,a1,1656
    80003280:	80000637          	lui	a2,0x80000
    80003284:	f20580d3          	fmv.d.x	ft1,a1
    80003288:	f2060153          	fmv.d.x	ft2,a2
    8000328c:	20208053          	fsgnj.s	ft0,ft1,ft2
    80003290:	e0000553          	fmv.x.w	a0,ft0
    80003294:	923453b7          	lui	t2,0x92345
    80003298:	6783839b          	addiw	t2,t2,1656 # ffffffff92345678 <freelist_head+0xffffffff1233c670>
    8000329c:	5c751663          	bne	a0,t2,80003868 <fail>

00000000800032a0 <test_162>:
    800032a0:	0a200193          	li	gp,162
    800032a4:	fff125b7          	lui	a1,0xfff12
    800032a8:	3455859b          	addiw	a1,a1,837 # fffffffffff12345 <freelist_head+0xffffffff7ff0933d>
    800032ac:	00c59593          	slli	a1,a1,0xc
    800032b0:	67858593          	addi	a1,a1,1656
    800032b4:	80000637          	lui	a2,0x80000
    800032b8:	f20580d3          	fmv.d.x	ft1,a1
    800032bc:	f2060153          	fmv.d.x	ft2,a2
    800032c0:	20208053          	fsgnj.s	ft0,ft1,ft2
    800032c4:	e2000553          	fmv.x.d	a0,ft0
    800032c8:	923453b7          	lui	t2,0x92345
    800032cc:	6783839b          	addiw	t2,t2,1656 # ffffffff92345678 <freelist_head+0xffffffff1233c670>
    800032d0:	58751c63          	bne	a0,t2,80003868 <fail>

00000000800032d4 <test_63>:
    800032d4:	03f00193          	li	gp,63
    800032d8:	fff125b7          	lui	a1,0xfff12
    800032dc:	3455859b          	addiw	a1,a1,837 # fffffffffff12345 <freelist_head+0xffffffff7ff0933d>
    800032e0:	00c59593          	slli	a1,a1,0xc
    800032e4:	67858593          	addi	a1,a1,1656
    800032e8:	0010061b          	addiw	a2,zero,1
    800032ec:	02061613          	slli	a2,a2,0x20
    800032f0:	fff60613          	addi	a2,a2,-1 # ffffffff7fffffff <freelist_head+0xfffffffeffff6ff7>
    800032f4:	01f61613          	slli	a2,a2,0x1f
    800032f8:	f20580d3          	fmv.d.x	ft1,a1
    800032fc:	f2060153          	fmv.d.x	ft2,a2
    80003300:	20208053          	fsgnj.s	ft0,ft1,ft2
    80003304:	e0000553          	fmv.x.w	a0,ft0
    80003308:	123453b7          	lui	t2,0x12345
    8000330c:	6783839b          	addiw	t2,t2,1656 # 12345678 <_start-0x6dcba988>
    80003310:	54751c63          	bne	a0,t2,80003868 <fail>

0000000080003314 <test_163>:
    80003314:	0a300193          	li	gp,163
    80003318:	fff125b7          	lui	a1,0xfff12
    8000331c:	3455859b          	addiw	a1,a1,837 # fffffffffff12345 <freelist_head+0xffffffff7ff0933d>
    80003320:	00c59593          	slli	a1,a1,0xc
    80003324:	67858593          	addi	a1,a1,1656
    80003328:	0010061b          	addiw	a2,zero,1
    8000332c:	02061613          	slli	a2,a2,0x20
    80003330:	fff60613          	addi	a2,a2,-1
    80003334:	01f61613          	slli	a2,a2,0x1f
    80003338:	f20580d3          	fmv.d.x	ft1,a1
    8000333c:	f2060153          	fmv.d.x	ft2,a2
    80003340:	20208053          	fsgnj.s	ft0,ft1,ft2
    80003344:	e2000553          	fmv.x.d	a0,ft0
    80003348:	fff123b7          	lui	t2,0xfff12
    8000334c:	3453839b          	addiw	t2,t2,837 # fffffffffff12345 <freelist_head+0xffffffff7ff0933d>
    80003350:	00c39393          	slli	t2,t2,0xc
    80003354:	67838393          	addi	t2,t2,1656
    80003358:	50751863          	bne	a0,t2,80003868 <fail>

000000008000335c <test_70>:
    8000335c:	04600193          	li	gp,70
    80003360:	fff115b7          	lui	a1,0xfff11
    80003364:	1115859b          	addiw	a1,a1,273 # fffffffffff11111 <freelist_head+0xffffffff7ff08109>
    80003368:	00c59593          	slli	a1,a1,0xc
    8000336c:	11158593          	addi	a1,a1,273
    80003370:	fff11637          	lui	a2,0xfff11
    80003374:	1116061b          	addiw	a2,a2,273 # fffffffffff11111 <freelist_head+0xffffffff7ff08109>
    80003378:	00c61613          	slli	a2,a2,0xc
    8000337c:	11160613          	addi	a2,a2,273
    80003380:	f20580d3          	fmv.d.x	ft1,a1
    80003384:	f2060153          	fmv.d.x	ft2,a2
    80003388:	22208053          	fsgnj.d	ft0,ft1,ft2
    8000338c:	a0002553          	feq.s	a0,ft0,ft0
    80003390:	fff50513          	addi	a0,a0,-1
    80003394:	00051463          	bnez	a0,8000339c <test_70+0x40>
    80003398:	e0000553          	fmv.x.w	a0,ft0
    8000339c:	111113b7          	lui	t2,0x11111
    800033a0:	1113839b          	addiw	t2,t2,273 # 11111111 <_start-0x6eeeeeef>
    800033a4:	4c751263          	bne	a0,t2,80003868 <fail>

00000000800033a8 <test_170>:
    800033a8:	0aa00193          	li	gp,170
    800033ac:	fff115b7          	lui	a1,0xfff11
    800033b0:	1115859b          	addiw	a1,a1,273 # fffffffffff11111 <freelist_head+0xffffffff7ff08109>
    800033b4:	00c59593          	slli	a1,a1,0xc
    800033b8:	11158593          	addi	a1,a1,273
    800033bc:	fff11637          	lui	a2,0xfff11
    800033c0:	1116061b          	addiw	a2,a2,273 # fffffffffff11111 <freelist_head+0xffffffff7ff08109>
    800033c4:	00c61613          	slli	a2,a2,0xc
    800033c8:	11160613          	addi	a2,a2,273
    800033cc:	f20580d3          	fmv.d.x	ft1,a1
    800033d0:	f2060153          	fmv.d.x	ft2,a2
    800033d4:	22208053          	fsgnj.d	ft0,ft1,ft2
    800033d8:	e2000553          	fmv.x.d	a0,ft0
    800033dc:	fff113b7          	lui	t2,0xfff11
    800033e0:	1113839b          	addiw	t2,t2,273 # fffffffffff11111 <freelist_head+0xffffffff7ff08109>
    800033e4:	00c39393          	slli	t2,t2,0xc
    800033e8:	11138393          	addi	t2,t2,273
    800033ec:	46751e63          	bne	a0,t2,80003868 <fail>

00000000800033f0 <test_71>:
    800033f0:	04700193          	li	gp,71
    800033f4:	fff115b7          	lui	a1,0xfff11
    800033f8:	1115859b          	addiw	a1,a1,273 # fffffffffff11111 <freelist_head+0xffffffff7ff08109>
    800033fc:	00c59593          	slli	a1,a1,0xc
    80003400:	11158593          	addi	a1,a1,273
    80003404:	0010061b          	addiw	a2,zero,1
    80003408:	02761613          	slli	a2,a2,0x27
    8000340c:	f1160613          	addi	a2,a2,-239
    80003410:	00c61613          	slli	a2,a2,0xc
    80003414:	11160613          	addi	a2,a2,273
    80003418:	00c61613          	slli	a2,a2,0xc
    8000341c:	11160613          	addi	a2,a2,273
    80003420:	f20580d3          	fmv.d.x	ft1,a1
    80003424:	f2060153          	fmv.d.x	ft2,a2
    80003428:	22208053          	fsgnj.d	ft0,ft1,ft2
    8000342c:	a0002553          	feq.s	a0,ft0,ft0
    80003430:	00050513          	mv	a0,a0
    80003434:	00051463          	bnez	a0,8000343c <test_71+0x4c>
    80003438:	e0000553          	fmv.x.w	a0,ft0
    8000343c:	111113b7          	lui	t2,0x11111
    80003440:	1113839b          	addiw	t2,t2,273 # 11111111 <_start-0x6eeeeeef>
    80003444:	42751263          	bne	a0,t2,80003868 <fail>

0000000080003448 <test_171>:
    80003448:	0ab00193          	li	gp,171
    8000344c:	fff115b7          	lui	a1,0xfff11
    80003450:	1115859b          	addiw	a1,a1,273 # fffffffffff11111 <freelist_head+0xffffffff7ff08109>
    80003454:	00c59593          	slli	a1,a1,0xc
    80003458:	11158593          	addi	a1,a1,273
    8000345c:	0010061b          	addiw	a2,zero,1
    80003460:	02761613          	slli	a2,a2,0x27
    80003464:	f1160613          	addi	a2,a2,-239
    80003468:	00c61613          	slli	a2,a2,0xc
    8000346c:	11160613          	addi	a2,a2,273
    80003470:	00c61613          	slli	a2,a2,0xc
    80003474:	11160613          	addi	a2,a2,273
    80003478:	f20580d3          	fmv.d.x	ft1,a1
    8000347c:	f2060153          	fmv.d.x	ft2,a2
    80003480:	22208053          	fsgnj.d	ft0,ft1,ft2
    80003484:	e2000553          	fmv.x.d	a0,ft0
    80003488:	0010039b          	addiw	t2,zero,1
    8000348c:	02739393          	slli	t2,t2,0x27
    80003490:	f1138393          	addi	t2,t2,-239
    80003494:	00c39393          	slli	t2,t2,0xc
    80003498:	11138393          	addi	t2,t2,273
    8000349c:	00c39393          	slli	t2,t2,0xc
    800034a0:	11138393          	addi	t2,t2,273
    800034a4:	3c751263          	bne	a0,t2,80003868 <fail>

00000000800034a8 <test_72>:
    800034a8:	04800193          	li	gp,72
    800034ac:	fff115b7          	lui	a1,0xfff11
    800034b0:	1115859b          	addiw	a1,a1,273 # fffffffffff11111 <freelist_head+0xffffffff7ff08109>
    800034b4:	00c59593          	slli	a1,a1,0xc
    800034b8:	11158593          	addi	a1,a1,273
    800034bc:	91111637          	lui	a2,0x91111
    800034c0:	1116061b          	addiw	a2,a2,273 # ffffffff91111111 <freelist_head+0xffffffff11108109>
    800034c4:	f20580d3          	fmv.d.x	ft1,a1
    800034c8:	f2060153          	fmv.d.x	ft2,a2
    800034cc:	22208053          	fsgnj.d	ft0,ft1,ft2
    800034d0:	a0002553          	feq.s	a0,ft0,ft0
    800034d4:	fff50513          	addi	a0,a0,-1
    800034d8:	00051463          	bnez	a0,800034e0 <test_72+0x38>
    800034dc:	e0000553          	fmv.x.w	a0,ft0
    800034e0:	111113b7          	lui	t2,0x11111
    800034e4:	1113839b          	addiw	t2,t2,273 # 11111111 <_start-0x6eeeeeef>
    800034e8:	38751063          	bne	a0,t2,80003868 <fail>

00000000800034ec <test_172>:
    800034ec:	0ac00193          	li	gp,172
    800034f0:	fff115b7          	lui	a1,0xfff11
    800034f4:	1115859b          	addiw	a1,a1,273 # fffffffffff11111 <freelist_head+0xffffffff7ff08109>
    800034f8:	00c59593          	slli	a1,a1,0xc
    800034fc:	11158593          	addi	a1,a1,273
    80003500:	91111637          	lui	a2,0x91111
    80003504:	1116061b          	addiw	a2,a2,273 # ffffffff91111111 <freelist_head+0xffffffff11108109>
    80003508:	f20580d3          	fmv.d.x	ft1,a1
    8000350c:	f2060153          	fmv.d.x	ft2,a2
    80003510:	22208053          	fsgnj.d	ft0,ft1,ft2
    80003514:	e2000553          	fmv.x.d	a0,ft0
    80003518:	fff113b7          	lui	t2,0xfff11
    8000351c:	1113839b          	addiw	t2,t2,273 # fffffffffff11111 <freelist_head+0xffffffff7ff08109>
    80003520:	00c39393          	slli	t2,t2,0xc
    80003524:	11138393          	addi	t2,t2,273
    80003528:	34751063          	bne	a0,t2,80003868 <fail>

000000008000352c <test_73>:
    8000352c:	04900193          	li	gp,73
    80003530:	fff115b7          	lui	a1,0xfff11
    80003534:	1115859b          	addiw	a1,a1,273 # fffffffffff11111 <freelist_head+0xffffffff7ff08109>
    80003538:	00c59593          	slli	a1,a1,0xc
    8000353c:	11158593          	addi	a1,a1,273
    80003540:	fff0061b          	addiw	a2,zero,-1
    80003544:	03f61613          	slli	a2,a2,0x3f
    80003548:	f20580d3          	fmv.d.x	ft1,a1
    8000354c:	f2060153          	fmv.d.x	ft2,a2
    80003550:	22208053          	fsgnj.d	ft0,ft1,ft2
    80003554:	a0002553          	feq.s	a0,ft0,ft0
    80003558:	fff50513          	addi	a0,a0,-1
    8000355c:	00051463          	bnez	a0,80003564 <test_73+0x38>
    80003560:	e0000553          	fmv.x.w	a0,ft0
    80003564:	111113b7          	lui	t2,0x11111
    80003568:	1113839b          	addiw	t2,t2,273 # 11111111 <_start-0x6eeeeeef>
    8000356c:	2e751e63          	bne	a0,t2,80003868 <fail>

0000000080003570 <test_173>:
    80003570:	0ad00193          	li	gp,173
    80003574:	fff115b7          	lui	a1,0xfff11
    80003578:	1115859b          	addiw	a1,a1,273 # fffffffffff11111 <freelist_head+0xffffffff7ff08109>
    8000357c:	00c59593          	slli	a1,a1,0xc
    80003580:	11158593          	addi	a1,a1,273
    80003584:	fff0061b          	addiw	a2,zero,-1
    80003588:	03f61613          	slli	a2,a2,0x3f
    8000358c:	f20580d3          	fmv.d.x	ft1,a1
    80003590:	f2060153          	fmv.d.x	ft2,a2
    80003594:	22208053          	fsgnj.d	ft0,ft1,ft2
    80003598:	e2000553          	fmv.x.d	a0,ft0
    8000359c:	fff113b7          	lui	t2,0xfff11
    800035a0:	1113839b          	addiw	t2,t2,273 # fffffffffff11111 <freelist_head+0xffffffff7ff08109>
    800035a4:	00c39393          	slli	t2,t2,0xc
    800035a8:	11138393          	addi	t2,t2,273
    800035ac:	2a751e63          	bne	a0,t2,80003868 <fail>

00000000800035b0 <test_74>:
    800035b0:	04a00193          	li	gp,74
    800035b4:	0010059b          	addiw	a1,zero,1
    800035b8:	02759593          	slli	a1,a1,0x27
    800035bc:	f1158593          	addi	a1,a1,-239
    800035c0:	00c59593          	slli	a1,a1,0xc
    800035c4:	11158593          	addi	a1,a1,273
    800035c8:	00c59593          	slli	a1,a1,0xc
    800035cc:	11158593          	addi	a1,a1,273
    800035d0:	fff11637          	lui	a2,0xfff11
    800035d4:	1116061b          	addiw	a2,a2,273 # fffffffffff11111 <freelist_head+0xffffffff7ff08109>
    800035d8:	00c61613          	slli	a2,a2,0xc
    800035dc:	11160613          	addi	a2,a2,273
    800035e0:	f20580d3          	fmv.d.x	ft1,a1
    800035e4:	f2060153          	fmv.d.x	ft2,a2
    800035e8:	22208053          	fsgnj.d	ft0,ft1,ft2
    800035ec:	a0002553          	feq.s	a0,ft0,ft0
    800035f0:	fff50513          	addi	a0,a0,-1
    800035f4:	00051463          	bnez	a0,800035fc <test_74+0x4c>
    800035f8:	e0000553          	fmv.x.w	a0,ft0
    800035fc:	111113b7          	lui	t2,0x11111
    80003600:	1113839b          	addiw	t2,t2,273 # 11111111 <_start-0x6eeeeeef>
    80003604:	26751263          	bne	a0,t2,80003868 <fail>

0000000080003608 <test_174>:
    80003608:	0ae00193          	li	gp,174
    8000360c:	0010059b          	addiw	a1,zero,1
    80003610:	02759593          	slli	a1,a1,0x27
    80003614:	f1158593          	addi	a1,a1,-239
    80003618:	00c59593          	slli	a1,a1,0xc
    8000361c:	11158593          	addi	a1,a1,273
    80003620:	00c59593          	slli	a1,a1,0xc
    80003624:	11158593          	addi	a1,a1,273
    80003628:	fff11637          	lui	a2,0xfff11
    8000362c:	1116061b          	addiw	a2,a2,273 # fffffffffff11111 <freelist_head+0xffffffff7ff08109>
    80003630:	00c61613          	slli	a2,a2,0xc
    80003634:	11160613          	addi	a2,a2,273
    80003638:	f20580d3          	fmv.d.x	ft1,a1
    8000363c:	f2060153          	fmv.d.x	ft2,a2
    80003640:	22208053          	fsgnj.d	ft0,ft1,ft2
    80003644:	e2000553          	fmv.x.d	a0,ft0
    80003648:	fff113b7          	lui	t2,0xfff11
    8000364c:	1113839b          	addiw	t2,t2,273 # fffffffffff11111 <freelist_head+0xffffffff7ff08109>
    80003650:	00c39393          	slli	t2,t2,0xc
    80003654:	11138393          	addi	t2,t2,273
    80003658:	20751863          	bne	a0,t2,80003868 <fail>

000000008000365c <test_75>:
    8000365c:	04b00193          	li	gp,75
    80003660:	0010059b          	addiw	a1,zero,1
    80003664:	02759593          	slli	a1,a1,0x27
    80003668:	f1158593          	addi	a1,a1,-239
    8000366c:	00c59593          	slli	a1,a1,0xc
    80003670:	11158593          	addi	a1,a1,273
    80003674:	00c59593          	slli	a1,a1,0xc
    80003678:	11158593          	addi	a1,a1,273
    8000367c:	0010061b          	addiw	a2,zero,1
    80003680:	02761613          	slli	a2,a2,0x27
    80003684:	f1160613          	addi	a2,a2,-239
    80003688:	00c61613          	slli	a2,a2,0xc
    8000368c:	11160613          	addi	a2,a2,273
    80003690:	00c61613          	slli	a2,a2,0xc
    80003694:	11160613          	addi	a2,a2,273
    80003698:	f20580d3          	fmv.d.x	ft1,a1
    8000369c:	f2060153          	fmv.d.x	ft2,a2
    800036a0:	22208053          	fsgnj.d	ft0,ft1,ft2
    800036a4:	a0002553          	feq.s	a0,ft0,ft0
    800036a8:	00050513          	mv	a0,a0
    800036ac:	00051463          	bnez	a0,800036b4 <test_75+0x58>
    800036b0:	e0000553          	fmv.x.w	a0,ft0
    800036b4:	111113b7          	lui	t2,0x11111
    800036b8:	1113839b          	addiw	t2,t2,273 # 11111111 <_start-0x6eeeeeef>
    800036bc:	1a751663          	bne	a0,t2,80003868 <fail>

00000000800036c0 <test_175>:
    800036c0:	0af00193          	li	gp,175
    800036c4:	0010059b          	addiw	a1,zero,1
    800036c8:	02759593          	slli	a1,a1,0x27
    800036cc:	f1158593          	addi	a1,a1,-239
    800036d0:	00c59593          	slli	a1,a1,0xc
    800036d4:	11158593          	addi	a1,a1,273
    800036d8:	00c59593          	slli	a1,a1,0xc
    800036dc:	11158593          	addi	a1,a1,273
    800036e0:	0010061b          	addiw	a2,zero,1
    800036e4:	02761613          	slli	a2,a2,0x27
    800036e8:	f1160613          	addi	a2,a2,-239
    800036ec:	00c61613          	slli	a2,a2,0xc
    800036f0:	11160613          	addi	a2,a2,273
    800036f4:	00c61613          	slli	a2,a2,0xc
    800036f8:	11160613          	addi	a2,a2,273
    800036fc:	f20580d3          	fmv.d.x	ft1,a1
    80003700:	f2060153          	fmv.d.x	ft2,a2
    80003704:	22208053          	fsgnj.d	ft0,ft1,ft2
    80003708:	e2000553          	fmv.x.d	a0,ft0
    8000370c:	0010039b          	addiw	t2,zero,1
    80003710:	02739393          	slli	t2,t2,0x27
    80003714:	f1138393          	addi	t2,t2,-239
    80003718:	00c39393          	slli	t2,t2,0xc
    8000371c:	11138393          	addi	t2,t2,273
    80003720:	00c39393          	slli	t2,t2,0xc
    80003724:	11138393          	addi	t2,t2,273
    80003728:	14751063          	bne	a0,t2,80003868 <fail>

000000008000372c <test_76>:
    8000372c:	04c00193          	li	gp,76
    80003730:	0010059b          	addiw	a1,zero,1
    80003734:	02759593          	slli	a1,a1,0x27
    80003738:	f1158593          	addi	a1,a1,-239
    8000373c:	00c59593          	slli	a1,a1,0xc
    80003740:	11158593          	addi	a1,a1,273
    80003744:	00c59593          	slli	a1,a1,0xc
    80003748:	11158593          	addi	a1,a1,273
    8000374c:	91111637          	lui	a2,0x91111
    80003750:	1116061b          	addiw	a2,a2,273 # ffffffff91111111 <freelist_head+0xffffffff11108109>
    80003754:	f20580d3          	fmv.d.x	ft1,a1
    80003758:	f2060153          	fmv.d.x	ft2,a2
    8000375c:	22208053          	fsgnj.d	ft0,ft1,ft2
    80003760:	a0002553          	feq.s	a0,ft0,ft0
    80003764:	fff50513          	addi	a0,a0,-1
    80003768:	00051463          	bnez	a0,80003770 <test_76+0x44>
    8000376c:	e0000553          	fmv.x.w	a0,ft0
    80003770:	111113b7          	lui	t2,0x11111
    80003774:	1113839b          	addiw	t2,t2,273 # 11111111 <_start-0x6eeeeeef>
    80003778:	0e751863          	bne	a0,t2,80003868 <fail>

000000008000377c <test_176>:
    8000377c:	0b000193          	li	gp,176
    80003780:	0010059b          	addiw	a1,zero,1
    80003784:	02759593          	slli	a1,a1,0x27
    80003788:	f1158593          	addi	a1,a1,-239
    8000378c:	00c59593          	slli	a1,a1,0xc
    80003790:	11158593          	addi	a1,a1,273
    80003794:	00c59593          	slli	a1,a1,0xc
    80003798:	11158593          	addi	a1,a1,273
    8000379c:	91111637          	lui	a2,0x91111
    800037a0:	1116061b          	addiw	a2,a2,273 # ffffffff91111111 <freelist_head+0xffffffff11108109>
    800037a4:	f20580d3          	fmv.d.x	ft1,a1
    800037a8:	f2060153          	fmv.d.x	ft2,a2
    800037ac:	22208053          	fsgnj.d	ft0,ft1,ft2
    800037b0:	e2000553          	fmv.x.d	a0,ft0
    800037b4:	fff113b7          	lui	t2,0xfff11
    800037b8:	1113839b          	addiw	t2,t2,273 # fffffffffff11111 <freelist_head+0xffffffff7ff08109>
    800037bc:	00c39393          	slli	t2,t2,0xc
    800037c0:	11138393          	addi	t2,t2,273
    800037c4:	0a751263          	bne	a0,t2,80003868 <fail>

00000000800037c8 <test_77>:
    800037c8:	04d00193          	li	gp,77
    800037cc:	0010059b          	addiw	a1,zero,1
    800037d0:	02759593          	slli	a1,a1,0x27
    800037d4:	f1158593          	addi	a1,a1,-239
    800037d8:	00c59593          	slli	a1,a1,0xc
    800037dc:	11158593          	addi	a1,a1,273
    800037e0:	00c59593          	slli	a1,a1,0xc
    800037e4:	11158593          	addi	a1,a1,273
    800037e8:	fff0061b          	addiw	a2,zero,-1
    800037ec:	03f61613          	slli	a2,a2,0x3f
    800037f0:	f20580d3          	fmv.d.x	ft1,a1
    800037f4:	f2060153          	fmv.d.x	ft2,a2
    800037f8:	22208053          	fsgnj.d	ft0,ft1,ft2
    800037fc:	a0002553          	feq.s	a0,ft0,ft0
    80003800:	fff50513          	addi	a0,a0,-1
    80003804:	00051463          	bnez	a0,8000380c <test_77+0x44>
    80003808:	e0000553          	fmv.x.w	a0,ft0
    8000380c:	111113b7          	lui	t2,0x11111
    80003810:	1113839b          	addiw	t2,t2,273 # 11111111 <_start-0x6eeeeeef>
    80003814:	04751a63          	bne	a0,t2,80003868 <fail>

0000000080003818 <test_177>:
    80003818:	0b100193          	li	gp,177
    8000381c:	0010059b          	addiw	a1,zero,1
    80003820:	02759593          	slli	a1,a1,0x27
    80003824:	f1158593          	addi	a1,a1,-239
    80003828:	00c59593          	slli	a1,a1,0xc
    8000382c:	11158593          	addi	a1,a1,273
    80003830:	00c59593          	slli	a1,a1,0xc
    80003834:	11158593          	addi	a1,a1,273
    80003838:	fff0061b          	addiw	a2,zero,-1
    8000383c:	03f61613          	slli	a2,a2,0x3f
    80003840:	f20580d3          	fmv.d.x	ft1,a1
    80003844:	f2060153          	fmv.d.x	ft2,a2
    80003848:	22208053          	fsgnj.d	ft0,ft1,ft2
    8000384c:	e2000553          	fmv.x.d	a0,ft0
    80003850:	fff113b7          	lui	t2,0xfff11
    80003854:	1113839b          	addiw	t2,t2,273 # fffffffffff11111 <freelist_head+0xffffffff7ff08109>
    80003858:	00c39393          	slli	t2,t2,0xc
    8000385c:	11138393          	addi	t2,t2,273
    80003860:	00751463          	bne	a0,t2,80003868 <fail>
    80003864:	00301a63          	bne	zero,gp,80003878 <pass>

0000000080003868 <fail>:
    80003868:	00119513          	slli	a0,gp,0x1
    8000386c:	00050063          	beqz	a0,8000386c <fail+0x4>
    80003870:	00156513          	ori	a0,a0,1
    80003874:	00000073          	ecall

0000000080003878 <pass>:
    80003878:	00100513          	li	a0,1
    8000387c:	00000073          	ecall
    80003880:	c0001073          	unimp
