
rv64uzfh-p-move:     формат файла elf64-littleriscv


Дизассемблирование раздела .text.init:

0000000080000000 <_start>:
    80000000:	0480006f          	j	80000048 <reset_vector>

0000000080000004 <trap_vector>:
    80000004:	34202f73          	csrr	t5,mcause
    80000008:	00800f93          	li	t6,8
    8000000c:	03ff0863          	beq	t5,t6,8000003c <write_tohost>
    80000010:	00900f93          	li	t6,9
    80000014:	03ff0463          	beq	t5,t6,8000003c <write_tohost>
    80000018:	00b00f93          	li	t6,11
    8000001c:	03ff0063          	beq	t5,t6,8000003c <write_tohost>
    80000020:	00000f13          	li	t5,0
    80000024:	000f0463          	beqz	t5,8000002c <trap_vector+0x28>
    80000028:	000f0067          	jr	t5
    8000002c:	34202f73          	csrr	t5,mcause
    80000030:	000f5463          	bgez	t5,80000038 <handle_exception>
    80000034:	0040006f          	j	80000038 <handle_exception>

0000000080000038 <handle_exception>:
    80000038:	5391e193          	ori	gp,gp,1337

000000008000003c <write_tohost>:
    8000003c:	00001f17          	auipc	t5,0x1
    80000040:	fc3f2223          	sw	gp,-60(t5) # 80001000 <tohost>
    80000044:	ff9ff06f          	j	8000003c <write_tohost>

0000000080000048 <reset_vector>:
    80000048:	00000093          	li	ra,0
    8000004c:	00000113          	li	sp,0
    80000050:	00000193          	li	gp,0
    80000054:	00000213          	li	tp,0
    80000058:	00000293          	li	t0,0
    8000005c:	00000313          	li	t1,0
    80000060:	00000393          	li	t2,0
    80000064:	00000413          	li	s0,0
    80000068:	00000493          	li	s1,0
    8000006c:	00000513          	li	a0,0
    80000070:	00000593          	li	a1,0
    80000074:	00000613          	li	a2,0
    80000078:	00000693          	li	a3,0
    8000007c:	00000713          	li	a4,0
    80000080:	00000793          	li	a5,0
    80000084:	00000813          	li	a6,0
    80000088:	00000893          	li	a7,0
    8000008c:	00000913          	li	s2,0
    80000090:	00000993          	li	s3,0
    80000094:	00000a13          	li	s4,0
    80000098:	00000a93          	li	s5,0
    8000009c:	00000b13          	li	s6,0
    800000a0:	00000b93          	li	s7,0
    800000a4:	00000c13          	li	s8,0
    800000a8:	00000c93          	li	s9,0
    800000ac:	00000d13          	li	s10,0
    800000b0:	00000d93          	li	s11,0
    800000b4:	00000e13          	li	t3,0
    800000b8:	00000e93          	li	t4,0
    800000bc:	00000f13          	li	t5,0
    800000c0:	00000f93          	li	t6,0
    800000c4:	f1402573          	csrr	a0,mhartid
    800000c8:	00051063          	bnez	a0,800000c8 <reset_vector+0x80>
    800000cc:	00000297          	auipc	t0,0x0
    800000d0:	01028293          	addi	t0,t0,16 # 800000dc <reset_vector+0x94>
    800000d4:	30529073          	csrw	mtvec,t0
    800000d8:	18005073          	csrwi	satp,0
    800000dc:	00000297          	auipc	t0,0x0
    800000e0:	02428293          	addi	t0,t0,36 # 80000100 <reset_vector+0xb8>
    800000e4:	30529073          	csrw	mtvec,t0
    800000e8:	0010029b          	addiw	t0,zero,1
    800000ec:	03529293          	slli	t0,t0,0x35
    800000f0:	fff28293          	addi	t0,t0,-1
    800000f4:	3b029073          	csrw	pmpaddr0,t0
    800000f8:	01f00293          	li	t0,31
    800000fc:	3a029073          	csrw	pmpcfg0,t0
    80000100:	30405073          	csrwi	mie,0
    80000104:	00000297          	auipc	t0,0x0
    80000108:	01428293          	addi	t0,t0,20 # 80000118 <reset_vector+0xd0>
    8000010c:	30529073          	csrw	mtvec,t0
    80000110:	30205073          	csrwi	medeleg,0
    80000114:	30305073          	csrwi	mideleg,0
    80000118:	00000193          	li	gp,0
    8000011c:	00000297          	auipc	t0,0x0
    80000120:	ee828293          	addi	t0,t0,-280 # 80000004 <trap_vector>
    80000124:	30529073          	csrw	mtvec,t0
    80000128:	00100513          	li	a0,1
    8000012c:	01f51513          	slli	a0,a0,0x1f
    80000130:	00055c63          	bgez	a0,80000148 <reset_vector+0x100>
    80000134:	0ff0000f          	fence
    80000138:	00100193          	li	gp,1
    8000013c:	05d00893          	li	a7,93
    80000140:	00000513          	li	a0,0
    80000144:	00000073          	ecall
    80000148:	00000293          	li	t0,0
    8000014c:	00028a63          	beqz	t0,80000160 <reset_vector+0x118>
    80000150:	10529073          	csrw	stvec,t0
    80000154:	0000b2b7          	lui	t0,0xb
    80000158:	1092829b          	addiw	t0,t0,265 # b109 <_start-0x7fff4ef7>
    8000015c:	30229073          	csrw	medeleg,t0
    80000160:	30005073          	csrwi	mstatus,0
    80000164:	00002537          	lui	a0,0x2
    80000168:	30052073          	csrs	mstatus,a0
    8000016c:	00305073          	csrwi	fcsr,0
    80000170:	00000297          	auipc	t0,0x0
    80000174:	01428293          	addi	t0,t0,20 # 80000184 <test_2>
    80000178:	34129073          	csrw	mepc,t0
    8000017c:	f1402573          	csrr	a0,mhartid
    80000180:	30200073          	mret

0000000080000184 <test_2>:
    80000184:	00200193          	li	gp,2
    80000188:	0030d073          	csrwi	fcsr,1
    8000018c:	00001537          	lui	a0,0x1
    80000190:	2345051b          	addiw	a0,a0,564 # 1234 <_start-0x7fffedcc>
    80000194:	003515f3          	fscsr	a1,a0
    80000198:	00100393          	li	t2,1
    8000019c:	26759c63          	bne	a1,t2,80000414 <fail>

00000000800001a0 <test_3>:
    800001a0:	00300193          	li	gp,3
    800001a4:	00302573          	frcsr	a0
    800001a8:	03400393          	li	t2,52
    800001ac:	26751463          	bne	a0,t2,80000414 <fail>

00000000800001b0 <test_4>:
    800001b0:	00400193          	li	gp,4
    800001b4:	00102573          	frflags	a0
    800001b8:	01400393          	li	t2,20
    800001bc:	24751c63          	bne	a0,t2,80000414 <fail>

00000000800001c0 <test_5>:
    800001c0:	00500193          	li	gp,5
    800001c4:	00215573          	fsrmi	a0,2
    800001c8:	00100393          	li	t2,1
    800001cc:	24751463          	bne	a0,t2,80000414 <fail>

00000000800001d0 <test_6>:
    800001d0:	00600193          	li	gp,6
    800001d4:	00302573          	frcsr	a0
    800001d8:	05400393          	li	t2,84
    800001dc:	22751c63          	bne	a0,t2,80000414 <fail>

00000000800001e0 <test_7>:
    800001e0:	00700193          	li	gp,7
    800001e4:	00127573          	csrrci	a0,fflags,4
    800001e8:	01400393          	li	t2,20
    800001ec:	22751463          	bne	a0,t2,80000414 <fail>

00000000800001f0 <test_8>:
    800001f0:	00800193          	li	gp,8
    800001f4:	00302573          	frcsr	a0
    800001f8:	05000393          	li	t2,80
    800001fc:	20751c63          	bne	a0,t2,80000414 <fail>

0000000080000200 <test_10>:
    80000200:	00a00193          	li	gp,10
    80000204:	000015b7          	lui	a1,0x1
    80000208:	2345859b          	addiw	a1,a1,564 # 1234 <_start-0x7fffedcc>
    8000020c:	00000613          	li	a2,0
    80000210:	f40580d3          	fmv.h.x	ft1,a1
    80000214:	f4060153          	fmv.h.x	ft2,a2
    80000218:	24208053          	fsgnj.h	ft0,ft1,ft2
    8000021c:	e4000553          	fmv.x.h	a0,ft0
    80000220:	000013b7          	lui	t2,0x1
    80000224:	2343839b          	addiw	t2,t2,564 # 1234 <_start-0x7fffedcc>
    80000228:	1e751663          	bne	a0,t2,80000414 <fail>

000000008000022c <test_11>:
    8000022c:	00b00193          	li	gp,11
    80000230:	000015b7          	lui	a1,0x1
    80000234:	2345859b          	addiw	a1,a1,564 # 1234 <_start-0x7fffedcc>
    80000238:	fff00613          	li	a2,-1
    8000023c:	f40580d3          	fmv.h.x	ft1,a1
    80000240:	f4060153          	fmv.h.x	ft2,a2
    80000244:	24208053          	fsgnj.h	ft0,ft1,ft2
    80000248:	e4000553          	fmv.x.h	a0,ft0
    8000024c:	ffff93b7          	lui	t2,0xffff9
    80000250:	2343839b          	addiw	t2,t2,564 # ffffffffffff9234 <_end+0xffffffff7fff7234>
    80000254:	1c751063          	bne	a0,t2,80000414 <fail>

0000000080000258 <test_12>:
    80000258:	00c00193          	li	gp,12
    8000025c:	000095b7          	lui	a1,0x9
    80000260:	2345859b          	addiw	a1,a1,564 # 9234 <_start-0x7fff6dcc>
    80000264:	00000613          	li	a2,0
    80000268:	f40580d3          	fmv.h.x	ft1,a1
    8000026c:	f4060153          	fmv.h.x	ft2,a2
    80000270:	24208053          	fsgnj.h	ft0,ft1,ft2
    80000274:	e4000553          	fmv.x.h	a0,ft0
    80000278:	000013b7          	lui	t2,0x1
    8000027c:	2343839b          	addiw	t2,t2,564 # 1234 <_start-0x7fffedcc>
    80000280:	18751a63          	bne	a0,t2,80000414 <fail>

0000000080000284 <test_13>:
    80000284:	00d00193          	li	gp,13
    80000288:	000095b7          	lui	a1,0x9
    8000028c:	2345859b          	addiw	a1,a1,564 # 9234 <_start-0x7fff6dcc>
    80000290:	fff00613          	li	a2,-1
    80000294:	f40580d3          	fmv.h.x	ft1,a1
    80000298:	f4060153          	fmv.h.x	ft2,a2
    8000029c:	24208053          	fsgnj.h	ft0,ft1,ft2
    800002a0:	e4000553          	fmv.x.h	a0,ft0
    800002a4:	ffff93b7          	lui	t2,0xffff9
    800002a8:	2343839b          	addiw	t2,t2,564 # ffffffffffff9234 <_end+0xffffffff7fff7234>
    800002ac:	16751463          	bne	a0,t2,80000414 <fail>

00000000800002b0 <test_20>:
    800002b0:	01400193          	li	gp,20
    800002b4:	000015b7          	lui	a1,0x1
    800002b8:	2345859b          	addiw	a1,a1,564 # 1234 <_start-0x7fffedcc>
    800002bc:	00000613          	li	a2,0
    800002c0:	f40580d3          	fmv.h.x	ft1,a1
    800002c4:	f4060153          	fmv.h.x	ft2,a2
    800002c8:	24209053          	fsgnjn.h	ft0,ft1,ft2
    800002cc:	e4000553          	fmv.x.h	a0,ft0
    800002d0:	ffff93b7          	lui	t2,0xffff9
    800002d4:	2343839b          	addiw	t2,t2,564 # ffffffffffff9234 <_end+0xffffffff7fff7234>
    800002d8:	12751e63          	bne	a0,t2,80000414 <fail>

00000000800002dc <test_21>:
    800002dc:	01500193          	li	gp,21
    800002e0:	000015b7          	lui	a1,0x1
    800002e4:	2345859b          	addiw	a1,a1,564 # 1234 <_start-0x7fffedcc>
    800002e8:	fff00613          	li	a2,-1
    800002ec:	f40580d3          	fmv.h.x	ft1,a1
    800002f0:	f4060153          	fmv.h.x	ft2,a2
    800002f4:	24209053          	fsgnjn.h	ft0,ft1,ft2
    800002f8:	e4000553          	fmv.x.h	a0,ft0
    800002fc:	000013b7          	lui	t2,0x1
    80000300:	2343839b          	addiw	t2,t2,564 # 1234 <_start-0x7fffedcc>
    80000304:	10751863          	bne	a0,t2,80000414 <fail>

0000000080000308 <test_22>:
    80000308:	01600193          	li	gp,22
    8000030c:	000095b7          	lui	a1,0x9
    80000310:	2345859b          	addiw	a1,a1,564 # 9234 <_start-0x7fff6dcc>
    80000314:	00000613          	li	a2,0
    80000318:	f40580d3          	fmv.h.x	ft1,a1
    8000031c:	f4060153          	fmv.h.x	ft2,a2
    80000320:	24209053          	fsgnjn.h	ft0,ft1,ft2
    80000324:	e4000553          	fmv.x.h	a0,ft0
    80000328:	ffff93b7          	lui	t2,0xffff9
    8000032c:	2343839b          	addiw	t2,t2,564 # ffffffffffff9234 <_end+0xffffffff7fff7234>
    80000330:	0e751263          	bne	a0,t2,80000414 <fail>

0000000080000334 <test_23>:
    80000334:	01700193          	li	gp,23
    80000338:	000095b7          	lui	a1,0x9
    8000033c:	2345859b          	addiw	a1,a1,564 # 9234 <_start-0x7fff6dcc>
    80000340:	fff00613          	li	a2,-1
    80000344:	f40580d3          	fmv.h.x	ft1,a1
    80000348:	f4060153          	fmv.h.x	ft2,a2
    8000034c:	24209053          	fsgnjn.h	ft0,ft1,ft2
    80000350:	e4000553          	fmv.x.h	a0,ft0
    80000354:	000013b7          	lui	t2,0x1
    80000358:	2343839b          	addiw	t2,t2,564 # 1234 <_start-0x7fffedcc>
    8000035c:	0a751c63          	bne	a0,t2,80000414 <fail>

0000000080000360 <test_30>:
    80000360:	01e00193          	li	gp,30
    80000364:	000015b7          	lui	a1,0x1
    80000368:	2345859b          	addiw	a1,a1,564 # 1234 <_start-0x7fffedcc>
    8000036c:	00000613          	li	a2,0
    80000370:	f40580d3          	fmv.h.x	ft1,a1
    80000374:	f4060153          	fmv.h.x	ft2,a2
    80000378:	2420a053          	fsgnjx.h	ft0,ft1,ft2
    8000037c:	e4000553          	fmv.x.h	a0,ft0
    80000380:	000013b7          	lui	t2,0x1
    80000384:	2343839b          	addiw	t2,t2,564 # 1234 <_start-0x7fffedcc>
    80000388:	08751663          	bne	a0,t2,80000414 <fail>

000000008000038c <test_31>:
    8000038c:	01f00193          	li	gp,31
    80000390:	000015b7          	lui	a1,0x1
    80000394:	2345859b          	addiw	a1,a1,564 # 1234 <_start-0x7fffedcc>
    80000398:	fff00613          	li	a2,-1
    8000039c:	f40580d3          	fmv.h.x	ft1,a1
    800003a0:	f4060153          	fmv.h.x	ft2,a2
    800003a4:	2420a053          	fsgnjx.h	ft0,ft1,ft2
    800003a8:	e4000553          	fmv.x.h	a0,ft0
    800003ac:	ffff93b7          	lui	t2,0xffff9
    800003b0:	2343839b          	addiw	t2,t2,564 # ffffffffffff9234 <_end+0xffffffff7fff7234>
    800003b4:	06751063          	bne	a0,t2,80000414 <fail>

00000000800003b8 <test_32>:
    800003b8:	02000193          	li	gp,32
    800003bc:	000095b7          	lui	a1,0x9
    800003c0:	2345859b          	addiw	a1,a1,564 # 9234 <_start-0x7fff6dcc>
    800003c4:	00000613          	li	a2,0
    800003c8:	f40580d3          	fmv.h.x	ft1,a1
    800003cc:	f4060153          	fmv.h.x	ft2,a2
    800003d0:	2420a053          	fsgnjx.h	ft0,ft1,ft2
    800003d4:	e4000553          	fmv.x.h	a0,ft0
    800003d8:	ffff93b7          	lui	t2,0xffff9
    800003dc:	2343839b          	addiw	t2,t2,564 # ffffffffffff9234 <_end+0xffffffff7fff7234>
    800003e0:	02751a63          	bne	a0,t2,80000414 <fail>

00000000800003e4 <test_33>:
    800003e4:	02100193          	li	gp,33
    800003e8:	000095b7          	lui	a1,0x9
    800003ec:	2345859b          	addiw	a1,a1,564 # 9234 <_start-0x7fff6dcc>
    800003f0:	fff00613          	li	a2,-1
    800003f4:	f40580d3          	fmv.h.x	ft1,a1
    800003f8:	f4060153          	fmv.h.x	ft2,a2
    800003fc:	2420a053          	fsgnjx.h	ft0,ft1,ft2
    80000400:	e4000553          	fmv.x.h	a0,ft0
    80000404:	000013b7          	lui	t2,0x1
    80000408:	2343839b          	addiw	t2,t2,564 # 1234 <_start-0x7fffedcc>
    8000040c:	00751463          	bne	a0,t2,80000414 <fail>
    80000410:	02301063          	bne	zero,gp,80000430 <pass>

0000000080000414 <fail>:
    80000414:	0ff0000f          	fence
    80000418:	00018063          	beqz	gp,80000418 <fail+0x4>
    8000041c:	00119193          	slli	gp,gp,0x1
    80000420:	0011e193          	ori	gp,gp,1
    80000424:	05d00893          	li	a7,93
    80000428:	00018513          	mv	a0,gp
    8000042c:	00000073          	ecall

0000000080000430 <pass>:
    80000430:	0ff0000f          	fence
    80000434:	00100193          	li	gp,1
    80000438:	05d00893          	li	a7,93
    8000043c:	00000513          	li	a0,0
    80000440:	00000073          	ecall
    80000444:	c0001073          	unimp
    80000448:	0000                	.2byte	0x0
    8000044a:	0000                	.2byte	0x0
    8000044c:	0000                	.2byte	0x0
    8000044e:	0000                	.2byte	0x0
    80000450:	0000                	.2byte	0x0
    80000452:	0000                	.2byte	0x0
    80000454:	0000                	.2byte	0x0
    80000456:	0000                	.2byte	0x0
    80000458:	0000                	.2byte	0x0
    8000045a:	0000                	.2byte	0x0
    8000045c:	0000                	.2byte	0x0
    8000045e:	0000                	.2byte	0x0
    80000460:	0000                	.2byte	0x0
    80000462:	0000                	.2byte	0x0
    80000464:	0000                	.2byte	0x0
    80000466:	0000                	.2byte	0x0
    80000468:	0000                	.2byte	0x0
    8000046a:	0000                	.2byte	0x0
    8000046c:	0000                	.2byte	0x0
    8000046e:	0000                	.2byte	0x0
    80000470:	0000                	.2byte	0x0
    80000472:	0000                	.2byte	0x0
    80000474:	0000                	.2byte	0x0
    80000476:	0000                	.2byte	0x0
    80000478:	0000                	.2byte	0x0
    8000047a:	0000                	.2byte	0x0
