
rv64uzfh-p-fmadd:     формат файла elf64-littleriscv


Дизассемблирование раздела .text.init:

0000000080000000 <_start>:
    80000000:	0480006f          	j	80000048 <reset_vector>

0000000080000004 <trap_vector>:
    80000004:	34202f73          	csrr	t5,mcause
    80000008:	00800f93          	li	t6,8
    8000000c:	03ff0863          	beq	t5,t6,8000003c <write_tohost>
    80000010:	00900f93          	li	t6,9
    80000014:	03ff0463          	beq	t5,t6,8000003c <write_tohost>
    80000018:	00b00f93          	li	t6,11
    8000001c:	03ff0063          	beq	t5,t6,8000003c <write_tohost>
    80000020:	00000f13          	li	t5,0
    80000024:	000f0463          	beqz	t5,8000002c <trap_vector+0x28>
    80000028:	000f0067          	jr	t5
    8000002c:	34202f73          	csrr	t5,mcause
    80000030:	000f5463          	bgez	t5,80000038 <handle_exception>
    80000034:	0040006f          	j	80000038 <handle_exception>

0000000080000038 <handle_exception>:
    80000038:	5391e193          	ori	gp,gp,1337

000000008000003c <write_tohost>:
    8000003c:	00001f17          	auipc	t5,0x1
    80000040:	fc3f2223          	sw	gp,-60(t5) # 80001000 <tohost>
    80000044:	ff9ff06f          	j	8000003c <write_tohost>

0000000080000048 <reset_vector>:
    80000048:	00000093          	li	ra,0
    8000004c:	00000113          	li	sp,0
    80000050:	00000193          	li	gp,0
    80000054:	00000213          	li	tp,0
    80000058:	00000293          	li	t0,0
    8000005c:	00000313          	li	t1,0
    80000060:	00000393          	li	t2,0
    80000064:	00000413          	li	s0,0
    80000068:	00000493          	li	s1,0
    8000006c:	00000513          	li	a0,0
    80000070:	00000593          	li	a1,0
    80000074:	00000613          	li	a2,0
    80000078:	00000693          	li	a3,0
    8000007c:	00000713          	li	a4,0
    80000080:	00000793          	li	a5,0
    80000084:	00000813          	li	a6,0
    80000088:	00000893          	li	a7,0
    8000008c:	00000913          	li	s2,0
    80000090:	00000993          	li	s3,0
    80000094:	00000a13          	li	s4,0
    80000098:	00000a93          	li	s5,0
    8000009c:	00000b13          	li	s6,0
    800000a0:	00000b93          	li	s7,0
    800000a4:	00000c13          	li	s8,0
    800000a8:	00000c93          	li	s9,0
    800000ac:	00000d13          	li	s10,0
    800000b0:	00000d93          	li	s11,0
    800000b4:	00000e13          	li	t3,0
    800000b8:	00000e93          	li	t4,0
    800000bc:	00000f13          	li	t5,0
    800000c0:	00000f93          	li	t6,0
    800000c4:	f1402573          	csrr	a0,mhartid
    800000c8:	00051063          	bnez	a0,800000c8 <reset_vector+0x80>
    800000cc:	00000297          	auipc	t0,0x0
    800000d0:	01028293          	addi	t0,t0,16 # 800000dc <reset_vector+0x94>
    800000d4:	30529073          	csrw	mtvec,t0
    800000d8:	18005073          	csrwi	satp,0
    800000dc:	00000297          	auipc	t0,0x0
    800000e0:	02428293          	addi	t0,t0,36 # 80000100 <reset_vector+0xb8>
    800000e4:	30529073          	csrw	mtvec,t0
    800000e8:	0010029b          	addiw	t0,zero,1
    800000ec:	03529293          	slli	t0,t0,0x35
    800000f0:	fff28293          	addi	t0,t0,-1
    800000f4:	3b029073          	csrw	pmpaddr0,t0
    800000f8:	01f00293          	li	t0,31
    800000fc:	3a029073          	csrw	pmpcfg0,t0
    80000100:	30405073          	csrwi	mie,0
    80000104:	00000297          	auipc	t0,0x0
    80000108:	01428293          	addi	t0,t0,20 # 80000118 <reset_vector+0xd0>
    8000010c:	30529073          	csrw	mtvec,t0
    80000110:	30205073          	csrwi	medeleg,0
    80000114:	30305073          	csrwi	mideleg,0
    80000118:	00000193          	li	gp,0
    8000011c:	00000297          	auipc	t0,0x0
    80000120:	ee828293          	addi	t0,t0,-280 # 80000004 <trap_vector>
    80000124:	30529073          	csrw	mtvec,t0
    80000128:	00100513          	li	a0,1
    8000012c:	01f51513          	slli	a0,a0,0x1f
    80000130:	00055c63          	bgez	a0,80000148 <reset_vector+0x100>
    80000134:	0ff0000f          	fence
    80000138:	00100193          	li	gp,1
    8000013c:	05d00893          	li	a7,93
    80000140:	00000513          	li	a0,0
    80000144:	00000073          	ecall
    80000148:	00000293          	li	t0,0
    8000014c:	00028a63          	beqz	t0,80000160 <reset_vector+0x118>
    80000150:	10529073          	csrw	stvec,t0
    80000154:	0000b2b7          	lui	t0,0xb
    80000158:	1092829b          	addiw	t0,t0,265 # b109 <_start-0x7fff4ef7>
    8000015c:	30229073          	csrw	medeleg,t0
    80000160:	30005073          	csrwi	mstatus,0
    80000164:	00002537          	lui	a0,0x2
    80000168:	30052073          	csrs	mstatus,a0
    8000016c:	00305073          	csrwi	fcsr,0
    80000170:	00000297          	auipc	t0,0x0
    80000174:	01428293          	addi	t0,t0,20 # 80000184 <test_2>
    80000178:	34129073          	csrw	mepc,t0
    8000017c:	f1402573          	csrr	a0,mhartid
    80000180:	30200073          	mret

0000000080000184 <test_2>:
    80000184:	00200193          	li	gp,2
    80000188:	00002517          	auipc	a0,0x2
    8000018c:	e7850513          	addi	a0,a0,-392 # 80002000 <test_2_data>
    80000190:	00051007          	flh	ft0,0(a0)
    80000194:	00251087          	flh	ft1,2(a0)
    80000198:	00451107          	flh	ft2,4(a0)
    8000019c:	00651683          	lh	a3,6(a0)
    800001a0:	141071c3          	fmadd.h	ft3,ft0,ft1,ft2
    800001a4:	e4018553          	fmv.x.h	a0,ft3
    800001a8:	001015f3          	fsflags	a1,zero
    800001ac:	00000613          	li	a2,0
    800001b0:	24d51463          	bne	a0,a3,800003f8 <fail>
    800001b4:	24c59263          	bne	a1,a2,800003f8 <fail>

00000000800001b8 <test_3>:
    800001b8:	00300193          	li	gp,3
    800001bc:	00002517          	auipc	a0,0x2
    800001c0:	e4c50513          	addi	a0,a0,-436 # 80002008 <test_3_data>
    800001c4:	00051007          	flh	ft0,0(a0)
    800001c8:	00251087          	flh	ft1,2(a0)
    800001cc:	00451107          	flh	ft2,4(a0)
    800001d0:	00651683          	lh	a3,6(a0)
    800001d4:	141071c3          	fmadd.h	ft3,ft0,ft1,ft2
    800001d8:	e4018553          	fmv.x.h	a0,ft3
    800001dc:	001015f3          	fsflags	a1,zero
    800001e0:	00100613          	li	a2,1
    800001e4:	20d51a63          	bne	a0,a3,800003f8 <fail>
    800001e8:	20c59863          	bne	a1,a2,800003f8 <fail>

00000000800001ec <test_4>:
    800001ec:	00400193          	li	gp,4
    800001f0:	00002517          	auipc	a0,0x2
    800001f4:	e2050513          	addi	a0,a0,-480 # 80002010 <test_4_data>
    800001f8:	00051007          	flh	ft0,0(a0)
    800001fc:	00251087          	flh	ft1,2(a0)
    80000200:	00451107          	flh	ft2,4(a0)
    80000204:	00651683          	lh	a3,6(a0)
    80000208:	141071c3          	fmadd.h	ft3,ft0,ft1,ft2
    8000020c:	e4018553          	fmv.x.h	a0,ft3
    80000210:	001015f3          	fsflags	a1,zero
    80000214:	00000613          	li	a2,0
    80000218:	1ed51063          	bne	a0,a3,800003f8 <fail>
    8000021c:	1cc59e63          	bne	a1,a2,800003f8 <fail>

0000000080000220 <test_5>:
    80000220:	00500193          	li	gp,5
    80000224:	00002517          	auipc	a0,0x2
    80000228:	df450513          	addi	a0,a0,-524 # 80002018 <test_5_data>
    8000022c:	00051007          	flh	ft0,0(a0)
    80000230:	00251087          	flh	ft1,2(a0)
    80000234:	00451107          	flh	ft2,4(a0)
    80000238:	00651683          	lh	a3,6(a0)
    8000023c:	141071cf          	fnmadd.h	ft3,ft0,ft1,ft2
    80000240:	e4018553          	fmv.x.h	a0,ft3
    80000244:	001015f3          	fsflags	a1,zero
    80000248:	00000613          	li	a2,0
    8000024c:	1ad51663          	bne	a0,a3,800003f8 <fail>
    80000250:	1ac59463          	bne	a1,a2,800003f8 <fail>

0000000080000254 <test_6>:
    80000254:	00600193          	li	gp,6
    80000258:	00002517          	auipc	a0,0x2
    8000025c:	dc850513          	addi	a0,a0,-568 # 80002020 <test_6_data>
    80000260:	00051007          	flh	ft0,0(a0)
    80000264:	00251087          	flh	ft1,2(a0)
    80000268:	00451107          	flh	ft2,4(a0)
    8000026c:	00651683          	lh	a3,6(a0)
    80000270:	141071cf          	fnmadd.h	ft3,ft0,ft1,ft2
    80000274:	e4018553          	fmv.x.h	a0,ft3
    80000278:	001015f3          	fsflags	a1,zero
    8000027c:	00100613          	li	a2,1
    80000280:	16d51c63          	bne	a0,a3,800003f8 <fail>
    80000284:	16c59a63          	bne	a1,a2,800003f8 <fail>

0000000080000288 <test_7>:
    80000288:	00700193          	li	gp,7
    8000028c:	00002517          	auipc	a0,0x2
    80000290:	d9c50513          	addi	a0,a0,-612 # 80002028 <test_7_data>
    80000294:	00051007          	flh	ft0,0(a0)
    80000298:	00251087          	flh	ft1,2(a0)
    8000029c:	00451107          	flh	ft2,4(a0)
    800002a0:	00651683          	lh	a3,6(a0)
    800002a4:	141071cf          	fnmadd.h	ft3,ft0,ft1,ft2
    800002a8:	e4018553          	fmv.x.h	a0,ft3
    800002ac:	001015f3          	fsflags	a1,zero
    800002b0:	00000613          	li	a2,0
    800002b4:	14d51263          	bne	a0,a3,800003f8 <fail>
    800002b8:	14c59063          	bne	a1,a2,800003f8 <fail>

00000000800002bc <test_8>:
    800002bc:	00800193          	li	gp,8
    800002c0:	00002517          	auipc	a0,0x2
    800002c4:	d7050513          	addi	a0,a0,-656 # 80002030 <test_8_data>
    800002c8:	00051007          	flh	ft0,0(a0)
    800002cc:	00251087          	flh	ft1,2(a0)
    800002d0:	00451107          	flh	ft2,4(a0)
    800002d4:	00651683          	lh	a3,6(a0)
    800002d8:	141071c7          	fmsub.h	ft3,ft0,ft1,ft2
    800002dc:	e4018553          	fmv.x.h	a0,ft3
    800002e0:	001015f3          	fsflags	a1,zero
    800002e4:	00000613          	li	a2,0
    800002e8:	10d51863          	bne	a0,a3,800003f8 <fail>
    800002ec:	10c59663          	bne	a1,a2,800003f8 <fail>

00000000800002f0 <test_9>:
    800002f0:	00900193          	li	gp,9
    800002f4:	00002517          	auipc	a0,0x2
    800002f8:	d4450513          	addi	a0,a0,-700 # 80002038 <test_9_data>
    800002fc:	00051007          	flh	ft0,0(a0)
    80000300:	00251087          	flh	ft1,2(a0)
    80000304:	00451107          	flh	ft2,4(a0)
    80000308:	00651683          	lh	a3,6(a0)
    8000030c:	141071c7          	fmsub.h	ft3,ft0,ft1,ft2
    80000310:	e4018553          	fmv.x.h	a0,ft3
    80000314:	001015f3          	fsflags	a1,zero
    80000318:	00100613          	li	a2,1
    8000031c:	0cd51e63          	bne	a0,a3,800003f8 <fail>
    80000320:	0cc59c63          	bne	a1,a2,800003f8 <fail>

0000000080000324 <test_10>:
    80000324:	00a00193          	li	gp,10
    80000328:	00002517          	auipc	a0,0x2
    8000032c:	d1850513          	addi	a0,a0,-744 # 80002040 <test_10_data>
    80000330:	00051007          	flh	ft0,0(a0)
    80000334:	00251087          	flh	ft1,2(a0)
    80000338:	00451107          	flh	ft2,4(a0)
    8000033c:	00651683          	lh	a3,6(a0)
    80000340:	141071c7          	fmsub.h	ft3,ft0,ft1,ft2
    80000344:	e4018553          	fmv.x.h	a0,ft3
    80000348:	001015f3          	fsflags	a1,zero
    8000034c:	00000613          	li	a2,0
    80000350:	0ad51463          	bne	a0,a3,800003f8 <fail>
    80000354:	0ac59263          	bne	a1,a2,800003f8 <fail>

0000000080000358 <test_11>:
    80000358:	00b00193          	li	gp,11
    8000035c:	00002517          	auipc	a0,0x2
    80000360:	cec50513          	addi	a0,a0,-788 # 80002048 <test_11_data>
    80000364:	00051007          	flh	ft0,0(a0)
    80000368:	00251087          	flh	ft1,2(a0)
    8000036c:	00451107          	flh	ft2,4(a0)
    80000370:	00651683          	lh	a3,6(a0)
    80000374:	141071cb          	fnmsub.h	ft3,ft0,ft1,ft2
    80000378:	e4018553          	fmv.x.h	a0,ft3
    8000037c:	001015f3          	fsflags	a1,zero
    80000380:	00000613          	li	a2,0
    80000384:	06d51a63          	bne	a0,a3,800003f8 <fail>
    80000388:	06c59863          	bne	a1,a2,800003f8 <fail>

000000008000038c <test_12>:
    8000038c:	00c00193          	li	gp,12
    80000390:	00002517          	auipc	a0,0x2
    80000394:	cc050513          	addi	a0,a0,-832 # 80002050 <test_12_data>
    80000398:	00051007          	flh	ft0,0(a0)
    8000039c:	00251087          	flh	ft1,2(a0)
    800003a0:	00451107          	flh	ft2,4(a0)
    800003a4:	00651683          	lh	a3,6(a0)
    800003a8:	141071cb          	fnmsub.h	ft3,ft0,ft1,ft2
    800003ac:	e4018553          	fmv.x.h	a0,ft3
    800003b0:	001015f3          	fsflags	a1,zero
    800003b4:	00100613          	li	a2,1
    800003b8:	04d51063          	bne	a0,a3,800003f8 <fail>
    800003bc:	02c59e63          	bne	a1,a2,800003f8 <fail>

00000000800003c0 <test_13>:
    800003c0:	00d00193          	li	gp,13
    800003c4:	00002517          	auipc	a0,0x2
    800003c8:	c9450513          	addi	a0,a0,-876 # 80002058 <test_13_data>
    800003cc:	00051007          	flh	ft0,0(a0)
    800003d0:	00251087          	flh	ft1,2(a0)
    800003d4:	00451107          	flh	ft2,4(a0)
    800003d8:	00651683          	lh	a3,6(a0)
    800003dc:	141071cb          	fnmsub.h	ft3,ft0,ft1,ft2
    800003e0:	e4018553          	fmv.x.h	a0,ft3
    800003e4:	001015f3          	fsflags	a1,zero
    800003e8:	00000613          	li	a2,0
    800003ec:	00d51663          	bne	a0,a3,800003f8 <fail>
    800003f0:	00c59463          	bne	a1,a2,800003f8 <fail>
    800003f4:	02301063          	bne	zero,gp,80000414 <pass>

00000000800003f8 <fail>:
    800003f8:	0ff0000f          	fence
    800003fc:	00018063          	beqz	gp,800003fc <fail+0x4>
    80000400:	00119193          	slli	gp,gp,0x1
    80000404:	0011e193          	ori	gp,gp,1
    80000408:	05d00893          	li	a7,93
    8000040c:	00018513          	mv	a0,gp
    80000410:	00000073          	ecall

0000000080000414 <pass>:
    80000414:	0ff0000f          	fence
    80000418:	00100193          	li	gp,1
    8000041c:	05d00893          	li	a7,93
    80000420:	00000513          	li	a0,0
    80000424:	00000073          	ecall
    80000428:	c0001073          	unimp
    8000042c:	0000                	.2byte	0x0
    8000042e:	0000                	.2byte	0x0
    80000430:	0000                	.2byte	0x0
    80000432:	0000                	.2byte	0x0
    80000434:	0000                	.2byte	0x0
    80000436:	0000                	.2byte	0x0
    80000438:	0000                	.2byte	0x0
    8000043a:	0000                	.2byte	0x0

Дизассемблирование раздела .data:

0000000080002000 <test_2_data>:
    80002000:	3c00                	.2byte	0x3c00
    80002002:	4100                	.2byte	0x4100
    80002004:	3c00                	.2byte	0x3c00
    80002006:	4300                	.2byte	0x4300

0000000080002008 <test_3_data>:
    80002008:	bc00                	.2byte	0xbc00
    8000200a:	ca0d                	.2byte	0xca0d
    8000200c:	3c66                	.2byte	0x3c66
    8000200e:	4a9a                	.2byte	0x4a9a

0000000080002010 <test_4_data>:
    80002010:	4000                	.2byte	0x4000
    80002012:	c500                	.2byte	0xc500
    80002014:	c000                	.2byte	0xc000
    80002016:	ca00                	.2byte	0xca00

0000000080002018 <test_5_data>:
    80002018:	3c00                	.2byte	0x3c00
    8000201a:	4100                	.2byte	0x4100
    8000201c:	3c00                	.2byte	0x3c00
    8000201e:	c300                	.2byte	0xc300

0000000080002020 <test_6_data>:
    80002020:	bc00                	.2byte	0xbc00
    80002022:	ca0d                	.2byte	0xca0d
    80002024:	3c66                	.2byte	0x3c66
    80002026:	ca9a                	.2byte	0xca9a

0000000080002028 <test_7_data>:
    80002028:	4000                	.2byte	0x4000
    8000202a:	c500                	.2byte	0xc500
    8000202c:	c000                	.2byte	0xc000
    8000202e:	4a00                	.2byte	0x4a00

0000000080002030 <test_8_data>:
    80002030:	3c00                	.2byte	0x3c00
    80002032:	4100                	.2byte	0x4100
    80002034:	3c00                	.2byte	0x3c00
    80002036:	3e00                	.2byte	0x3e00

0000000080002038 <test_9_data>:
    80002038:	bc00                	.2byte	0xbc00
    8000203a:	ca0d                	.2byte	0xca0d
    8000203c:	3c66                	.2byte	0x3c66
    8000203e:	4980                	.2byte	0x4980

0000000080002040 <test_10_data>:
    80002040:	4000                	.2byte	0x4000
    80002042:	c500                	.2byte	0xc500
    80002044:	c000                	.2byte	0xc000
    80002046:	c800                	.2byte	0xc800

0000000080002048 <test_11_data>:
    80002048:	3c00                	.2byte	0x3c00
    8000204a:	4100                	.2byte	0x4100
    8000204c:	3c00                	.2byte	0x3c00
    8000204e:	be00                	.2byte	0xbe00

0000000080002050 <test_12_data>:
    80002050:	bc00                	.2byte	0xbc00
    80002052:	ca0d                	.2byte	0xca0d
    80002054:	3c66                	.2byte	0x3c66
    80002056:	c980                	.2byte	0xc980

0000000080002058 <test_13_data>:
    80002058:	4000                	.2byte	0x4000
    8000205a:	c500                	.2byte	0xc500
    8000205c:	c000                	.2byte	0xc000
    8000205e:	4800                	.2byte	0x4800
