
rv64uzfh-p-fcvt_w:     формат файла elf64-littleriscv


Дизассемблирование раздела .text.init:

0000000080000000 <_start>:
    80000000:	0480006f          	j	80000048 <reset_vector>

0000000080000004 <trap_vector>:
    80000004:	34202f73          	csrr	t5,mcause
    80000008:	00800f93          	li	t6,8
    8000000c:	03ff0863          	beq	t5,t6,8000003c <write_tohost>
    80000010:	00900f93          	li	t6,9
    80000014:	03ff0463          	beq	t5,t6,8000003c <write_tohost>
    80000018:	00b00f93          	li	t6,11
    8000001c:	03ff0063          	beq	t5,t6,8000003c <write_tohost>
    80000020:	00000f13          	li	t5,0
    80000024:	000f0463          	beqz	t5,8000002c <trap_vector+0x28>
    80000028:	000f0067          	jr	t5
    8000002c:	34202f73          	csrr	t5,mcause
    80000030:	000f5463          	bgez	t5,80000038 <handle_exception>
    80000034:	0040006f          	j	80000038 <handle_exception>

0000000080000038 <handle_exception>:
    80000038:	5391e193          	ori	gp,gp,1337

000000008000003c <write_tohost>:
    8000003c:	00001f17          	auipc	t5,0x1
    80000040:	fc3f2223          	sw	gp,-60(t5) # 80001000 <tohost>
    80000044:	ff9ff06f          	j	8000003c <write_tohost>

0000000080000048 <reset_vector>:
    80000048:	00000093          	li	ra,0
    8000004c:	00000113          	li	sp,0
    80000050:	00000193          	li	gp,0
    80000054:	00000213          	li	tp,0
    80000058:	00000293          	li	t0,0
    8000005c:	00000313          	li	t1,0
    80000060:	00000393          	li	t2,0
    80000064:	00000413          	li	s0,0
    80000068:	00000493          	li	s1,0
    8000006c:	00000513          	li	a0,0
    80000070:	00000593          	li	a1,0
    80000074:	00000613          	li	a2,0
    80000078:	00000693          	li	a3,0
    8000007c:	00000713          	li	a4,0
    80000080:	00000793          	li	a5,0
    80000084:	00000813          	li	a6,0
    80000088:	00000893          	li	a7,0
    8000008c:	00000913          	li	s2,0
    80000090:	00000993          	li	s3,0
    80000094:	00000a13          	li	s4,0
    80000098:	00000a93          	li	s5,0
    8000009c:	00000b13          	li	s6,0
    800000a0:	00000b93          	li	s7,0
    800000a4:	00000c13          	li	s8,0
    800000a8:	00000c93          	li	s9,0
    800000ac:	00000d13          	li	s10,0
    800000b0:	00000d93          	li	s11,0
    800000b4:	00000e13          	li	t3,0
    800000b8:	00000e93          	li	t4,0
    800000bc:	00000f13          	li	t5,0
    800000c0:	00000f93          	li	t6,0
    800000c4:	f1402573          	csrr	a0,mhartid
    800000c8:	00051063          	bnez	a0,800000c8 <reset_vector+0x80>
    800000cc:	00000297          	auipc	t0,0x0
    800000d0:	01028293          	addi	t0,t0,16 # 800000dc <reset_vector+0x94>
    800000d4:	30529073          	csrw	mtvec,t0
    800000d8:	18005073          	csrwi	satp,0
    800000dc:	00000297          	auipc	t0,0x0
    800000e0:	02428293          	addi	t0,t0,36 # 80000100 <reset_vector+0xb8>
    800000e4:	30529073          	csrw	mtvec,t0
    800000e8:	0010029b          	addiw	t0,zero,1
    800000ec:	03529293          	slli	t0,t0,0x35
    800000f0:	fff28293          	addi	t0,t0,-1
    800000f4:	3b029073          	csrw	pmpaddr0,t0
    800000f8:	01f00293          	li	t0,31
    800000fc:	3a029073          	csrw	pmpcfg0,t0
    80000100:	30405073          	csrwi	mie,0
    80000104:	00000297          	auipc	t0,0x0
    80000108:	01428293          	addi	t0,t0,20 # 80000118 <reset_vector+0xd0>
    8000010c:	30529073          	csrw	mtvec,t0
    80000110:	30205073          	csrwi	medeleg,0
    80000114:	30305073          	csrwi	mideleg,0
    80000118:	00000193          	li	gp,0
    8000011c:	00000297          	auipc	t0,0x0
    80000120:	ee828293          	addi	t0,t0,-280 # 80000004 <trap_vector>
    80000124:	30529073          	csrw	mtvec,t0
    80000128:	00100513          	li	a0,1
    8000012c:	01f51513          	slli	a0,a0,0x1f
    80000130:	00055c63          	bgez	a0,80000148 <reset_vector+0x100>
    80000134:	0ff0000f          	fence
    80000138:	00100193          	li	gp,1
    8000013c:	05d00893          	li	a7,93
    80000140:	00000513          	li	a0,0
    80000144:	00000073          	ecall
    80000148:	00000293          	li	t0,0
    8000014c:	00028a63          	beqz	t0,80000160 <reset_vector+0x118>
    80000150:	10529073          	csrw	stvec,t0
    80000154:	0000b2b7          	lui	t0,0xb
    80000158:	1092829b          	addiw	t0,t0,265 # b109 <_start-0x7fff4ef7>
    8000015c:	30229073          	csrw	medeleg,t0
    80000160:	30005073          	csrwi	mstatus,0
    80000164:	00002537          	lui	a0,0x2
    80000168:	30052073          	csrs	mstatus,a0
    8000016c:	00305073          	csrwi	fcsr,0
    80000170:	00000297          	auipc	t0,0x0
    80000174:	01428293          	addi	t0,t0,20 # 80000184 <test_2>
    80000178:	34129073          	csrw	mepc,t0
    8000017c:	f1402573          	csrr	a0,mhartid
    80000180:	30200073          	mret

0000000080000184 <test_2>:
    80000184:	00200193          	li	gp,2
    80000188:	00002517          	auipc	a0,0x2
    8000018c:	e7850513          	addi	a0,a0,-392 # 80002000 <test_2_data>
    80000190:	00051007          	flh	ft0,0(a0)
    80000194:	00251087          	flh	ft1,2(a0)
    80000198:	00451107          	flh	ft2,4(a0)
    8000019c:	00651683          	lh	a3,6(a0)
    800001a0:	c4001553          	fcvt.w.h	a0,ft0,rtz
    800001a4:	001015f3          	fsflags	a1,zero
    800001a8:	00100613          	li	a2,1
    800001ac:	72d51a63          	bne	a0,a3,800008e0 <fail>
    800001b0:	72c59863          	bne	a1,a2,800008e0 <fail>

00000000800001b4 <test_3>:
    800001b4:	00300193          	li	gp,3
    800001b8:	00002517          	auipc	a0,0x2
    800001bc:	e5250513          	addi	a0,a0,-430 # 8000200a <test_3_data>
    800001c0:	00051007          	flh	ft0,0(a0)
    800001c4:	00251087          	flh	ft1,2(a0)
    800001c8:	00451107          	flh	ft2,4(a0)
    800001cc:	00651683          	lh	a3,6(a0)
    800001d0:	c4001553          	fcvt.w.h	a0,ft0,rtz
    800001d4:	001015f3          	fsflags	a1,zero
    800001d8:	00000613          	li	a2,0
    800001dc:	70d51263          	bne	a0,a3,800008e0 <fail>
    800001e0:	70c59063          	bne	a1,a2,800008e0 <fail>

00000000800001e4 <test_4>:
    800001e4:	00400193          	li	gp,4
    800001e8:	00002517          	auipc	a0,0x2
    800001ec:	e2c50513          	addi	a0,a0,-468 # 80002014 <test_4_data>
    800001f0:	00051007          	flh	ft0,0(a0)
    800001f4:	00251087          	flh	ft1,2(a0)
    800001f8:	00451107          	flh	ft2,4(a0)
    800001fc:	00651683          	lh	a3,6(a0)
    80000200:	c4001553          	fcvt.w.h	a0,ft0,rtz
    80000204:	001015f3          	fsflags	a1,zero
    80000208:	00100613          	li	a2,1
    8000020c:	6cd51a63          	bne	a0,a3,800008e0 <fail>
    80000210:	6cc59863          	bne	a1,a2,800008e0 <fail>

0000000080000214 <test_5>:
    80000214:	00500193          	li	gp,5
    80000218:	00002517          	auipc	a0,0x2
    8000021c:	e0650513          	addi	a0,a0,-506 # 8000201e <test_5_data>
    80000220:	00051007          	flh	ft0,0(a0)
    80000224:	00251087          	flh	ft1,2(a0)
    80000228:	00451107          	flh	ft2,4(a0)
    8000022c:	00651683          	lh	a3,6(a0)
    80000230:	c4001553          	fcvt.w.h	a0,ft0,rtz
    80000234:	001015f3          	fsflags	a1,zero
    80000238:	00100613          	li	a2,1
    8000023c:	6ad51263          	bne	a0,a3,800008e0 <fail>
    80000240:	6ac59063          	bne	a1,a2,800008e0 <fail>

0000000080000244 <test_6>:
    80000244:	00600193          	li	gp,6
    80000248:	00002517          	auipc	a0,0x2
    8000024c:	de050513          	addi	a0,a0,-544 # 80002028 <test_6_data>
    80000250:	00051007          	flh	ft0,0(a0)
    80000254:	00251087          	flh	ft1,2(a0)
    80000258:	00451107          	flh	ft2,4(a0)
    8000025c:	00651683          	lh	a3,6(a0)
    80000260:	c4001553          	fcvt.w.h	a0,ft0,rtz
    80000264:	001015f3          	fsflags	a1,zero
    80000268:	00000613          	li	a2,0
    8000026c:	66d51a63          	bne	a0,a3,800008e0 <fail>
    80000270:	66c59863          	bne	a1,a2,800008e0 <fail>

0000000080000274 <test_7>:
    80000274:	00700193          	li	gp,7
    80000278:	00002517          	auipc	a0,0x2
    8000027c:	dba50513          	addi	a0,a0,-582 # 80002032 <test_7_data>
    80000280:	00051007          	flh	ft0,0(a0)
    80000284:	00251087          	flh	ft1,2(a0)
    80000288:	00451107          	flh	ft2,4(a0)
    8000028c:	00651683          	lh	a3,6(a0)
    80000290:	c4001553          	fcvt.w.h	a0,ft0,rtz
    80000294:	001015f3          	fsflags	a1,zero
    80000298:	00100613          	li	a2,1
    8000029c:	64d51263          	bne	a0,a3,800008e0 <fail>
    800002a0:	64c59063          	bne	a1,a2,800008e0 <fail>

00000000800002a4 <test_8>:
    800002a4:	00800193          	li	gp,8
    800002a8:	00002517          	auipc	a0,0x2
    800002ac:	d9450513          	addi	a0,a0,-620 # 8000203c <test_8_data>
    800002b0:	00051007          	flh	ft0,0(a0)
    800002b4:	00251087          	flh	ft1,2(a0)
    800002b8:	00451107          	flh	ft2,4(a0)
    800002bc:	00651683          	lh	a3,6(a0)
    800002c0:	c4001553          	fcvt.w.h	a0,ft0,rtz
    800002c4:	001015f3          	fsflags	a1,zero
    800002c8:	00000613          	li	a2,0
    800002cc:	60d51a63          	bne	a0,a3,800008e0 <fail>
    800002d0:	60c59863          	bne	a1,a2,800008e0 <fail>

00000000800002d4 <test_9>:
    800002d4:	00900193          	li	gp,9
    800002d8:	00002517          	auipc	a0,0x2
    800002dc:	d6e50513          	addi	a0,a0,-658 # 80002046 <test_9_data>
    800002e0:	00051007          	flh	ft0,0(a0)
    800002e4:	00251087          	flh	ft1,2(a0)
    800002e8:	00451107          	flh	ft2,4(a0)
    800002ec:	00651683          	lh	a3,6(a0)
    800002f0:	c4001553          	fcvt.w.h	a0,ft0,rtz
    800002f4:	001015f3          	fsflags	a1,zero
    800002f8:	00000613          	li	a2,0
    800002fc:	5ed51263          	bne	a0,a3,800008e0 <fail>
    80000300:	5ec59063          	bne	a1,a2,800008e0 <fail>

0000000080000304 <test_12>:
    80000304:	00c00193          	li	gp,12
    80000308:	00002517          	auipc	a0,0x2
    8000030c:	d4850513          	addi	a0,a0,-696 # 80002050 <test_12_data>
    80000310:	00051007          	flh	ft0,0(a0)
    80000314:	00251087          	flh	ft1,2(a0)
    80000318:	00451107          	flh	ft2,4(a0)
    8000031c:	00651683          	lh	a3,6(a0)
    80000320:	c4101553          	fcvt.wu.h	a0,ft0,rtz
    80000324:	001015f3          	fsflags	a1,zero
    80000328:	01000613          	li	a2,16
    8000032c:	5ad51a63          	bne	a0,a3,800008e0 <fail>
    80000330:	5ac59863          	bne	a1,a2,800008e0 <fail>

0000000080000334 <test_13>:
    80000334:	00d00193          	li	gp,13
    80000338:	00002517          	auipc	a0,0x2
    8000033c:	d2250513          	addi	a0,a0,-734 # 8000205a <test_13_data>
    80000340:	00051007          	flh	ft0,0(a0)
    80000344:	00251087          	flh	ft1,2(a0)
    80000348:	00451107          	flh	ft2,4(a0)
    8000034c:	00651683          	lh	a3,6(a0)
    80000350:	c4101553          	fcvt.wu.h	a0,ft0,rtz
    80000354:	001015f3          	fsflags	a1,zero
    80000358:	01000613          	li	a2,16
    8000035c:	58d51263          	bne	a0,a3,800008e0 <fail>
    80000360:	58c59063          	bne	a1,a2,800008e0 <fail>

0000000080000364 <test_14>:
    80000364:	00e00193          	li	gp,14
    80000368:	00002517          	auipc	a0,0x2
    8000036c:	cfc50513          	addi	a0,a0,-772 # 80002064 <test_14_data>
    80000370:	00051007          	flh	ft0,0(a0)
    80000374:	00251087          	flh	ft1,2(a0)
    80000378:	00451107          	flh	ft2,4(a0)
    8000037c:	00651683          	lh	a3,6(a0)
    80000380:	c4101553          	fcvt.wu.h	a0,ft0,rtz
    80000384:	001015f3          	fsflags	a1,zero
    80000388:	00100613          	li	a2,1
    8000038c:	54d51a63          	bne	a0,a3,800008e0 <fail>
    80000390:	54c59863          	bne	a1,a2,800008e0 <fail>

0000000080000394 <test_15>:
    80000394:	00f00193          	li	gp,15
    80000398:	00002517          	auipc	a0,0x2
    8000039c:	cd650513          	addi	a0,a0,-810 # 8000206e <test_15_data>
    800003a0:	00051007          	flh	ft0,0(a0)
    800003a4:	00251087          	flh	ft1,2(a0)
    800003a8:	00451107          	flh	ft2,4(a0)
    800003ac:	00651683          	lh	a3,6(a0)
    800003b0:	c4101553          	fcvt.wu.h	a0,ft0,rtz
    800003b4:	001015f3          	fsflags	a1,zero
    800003b8:	00100613          	li	a2,1
    800003bc:	52d51263          	bne	a0,a3,800008e0 <fail>
    800003c0:	52c59063          	bne	a1,a2,800008e0 <fail>

00000000800003c4 <test_16>:
    800003c4:	01000193          	li	gp,16
    800003c8:	00002517          	auipc	a0,0x2
    800003cc:	cb050513          	addi	a0,a0,-848 # 80002078 <test_16_data>
    800003d0:	00051007          	flh	ft0,0(a0)
    800003d4:	00251087          	flh	ft1,2(a0)
    800003d8:	00451107          	flh	ft2,4(a0)
    800003dc:	00651683          	lh	a3,6(a0)
    800003e0:	c4101553          	fcvt.wu.h	a0,ft0,rtz
    800003e4:	001015f3          	fsflags	a1,zero
    800003e8:	00000613          	li	a2,0
    800003ec:	4ed51a63          	bne	a0,a3,800008e0 <fail>
    800003f0:	4ec59863          	bne	a1,a2,800008e0 <fail>

00000000800003f4 <test_17>:
    800003f4:	01100193          	li	gp,17
    800003f8:	00002517          	auipc	a0,0x2
    800003fc:	c8a50513          	addi	a0,a0,-886 # 80002082 <test_17_data>
    80000400:	00051007          	flh	ft0,0(a0)
    80000404:	00251087          	flh	ft1,2(a0)
    80000408:	00451107          	flh	ft2,4(a0)
    8000040c:	00651683          	lh	a3,6(a0)
    80000410:	c4101553          	fcvt.wu.h	a0,ft0,rtz
    80000414:	001015f3          	fsflags	a1,zero
    80000418:	00100613          	li	a2,1
    8000041c:	4cd51263          	bne	a0,a3,800008e0 <fail>
    80000420:	4cc59063          	bne	a1,a2,800008e0 <fail>

0000000080000424 <test_18>:
    80000424:	01200193          	li	gp,18
    80000428:	00002517          	auipc	a0,0x2
    8000042c:	c6450513          	addi	a0,a0,-924 # 8000208c <test_18_data>
    80000430:	00051007          	flh	ft0,0(a0)
    80000434:	00251087          	flh	ft1,2(a0)
    80000438:	00451107          	flh	ft2,4(a0)
    8000043c:	00651683          	lh	a3,6(a0)
    80000440:	c4101553          	fcvt.wu.h	a0,ft0,rtz
    80000444:	001015f3          	fsflags	a1,zero
    80000448:	01000613          	li	a2,16
    8000044c:	48d51a63          	bne	a0,a3,800008e0 <fail>
    80000450:	48c59863          	bne	a1,a2,800008e0 <fail>

0000000080000454 <test_19>:
    80000454:	01300193          	li	gp,19
    80000458:	00002517          	auipc	a0,0x2
    8000045c:	c3e50513          	addi	a0,a0,-962 # 80002096 <test_19_data>
    80000460:	00051007          	flh	ft0,0(a0)
    80000464:	00251087          	flh	ft1,2(a0)
    80000468:	00451107          	flh	ft2,4(a0)
    8000046c:	00651683          	lh	a3,6(a0)
    80000470:	c4101553          	fcvt.wu.h	a0,ft0,rtz
    80000474:	001015f3          	fsflags	a1,zero
    80000478:	00000613          	li	a2,0
    8000047c:	46d51263          	bne	a0,a3,800008e0 <fail>
    80000480:	46c59063          	bne	a1,a2,800008e0 <fail>

0000000080000484 <test_22>:
    80000484:	01600193          	li	gp,22
    80000488:	00002517          	auipc	a0,0x2
    8000048c:	c1850513          	addi	a0,a0,-1000 # 800020a0 <test_22_data>
    80000490:	00051007          	flh	ft0,0(a0)
    80000494:	00251087          	flh	ft1,2(a0)
    80000498:	00451107          	flh	ft2,4(a0)
    8000049c:	00651683          	lh	a3,6(a0)
    800004a0:	c4201553          	fcvt.l.h	a0,ft0,rtz
    800004a4:	001015f3          	fsflags	a1,zero
    800004a8:	00100613          	li	a2,1
    800004ac:	42d51a63          	bne	a0,a3,800008e0 <fail>
    800004b0:	42c59863          	bne	a1,a2,800008e0 <fail>

00000000800004b4 <test_23>:
    800004b4:	01700193          	li	gp,23
    800004b8:	00002517          	auipc	a0,0x2
    800004bc:	bf250513          	addi	a0,a0,-1038 # 800020aa <test_23_data>
    800004c0:	00051007          	flh	ft0,0(a0)
    800004c4:	00251087          	flh	ft1,2(a0)
    800004c8:	00451107          	flh	ft2,4(a0)
    800004cc:	00651683          	lh	a3,6(a0)
    800004d0:	c4201553          	fcvt.l.h	a0,ft0,rtz
    800004d4:	001015f3          	fsflags	a1,zero
    800004d8:	00000613          	li	a2,0
    800004dc:	40d51263          	bne	a0,a3,800008e0 <fail>
    800004e0:	40c59063          	bne	a1,a2,800008e0 <fail>

00000000800004e4 <test_24>:
    800004e4:	01800193          	li	gp,24
    800004e8:	00002517          	auipc	a0,0x2
    800004ec:	bcc50513          	addi	a0,a0,-1076 # 800020b4 <test_24_data>
    800004f0:	00051007          	flh	ft0,0(a0)
    800004f4:	00251087          	flh	ft1,2(a0)
    800004f8:	00451107          	flh	ft2,4(a0)
    800004fc:	00651683          	lh	a3,6(a0)
    80000500:	c4201553          	fcvt.l.h	a0,ft0,rtz
    80000504:	001015f3          	fsflags	a1,zero
    80000508:	00100613          	li	a2,1
    8000050c:	3cd51a63          	bne	a0,a3,800008e0 <fail>
    80000510:	3cc59863          	bne	a1,a2,800008e0 <fail>

0000000080000514 <test_25>:
    80000514:	01900193          	li	gp,25
    80000518:	00002517          	auipc	a0,0x2
    8000051c:	ba650513          	addi	a0,a0,-1114 # 800020be <test_25_data>
    80000520:	00051007          	flh	ft0,0(a0)
    80000524:	00251087          	flh	ft1,2(a0)
    80000528:	00451107          	flh	ft2,4(a0)
    8000052c:	00651683          	lh	a3,6(a0)
    80000530:	c4201553          	fcvt.l.h	a0,ft0,rtz
    80000534:	001015f3          	fsflags	a1,zero
    80000538:	00100613          	li	a2,1
    8000053c:	3ad51263          	bne	a0,a3,800008e0 <fail>
    80000540:	3ac59063          	bne	a1,a2,800008e0 <fail>

0000000080000544 <test_26>:
    80000544:	01a00193          	li	gp,26
    80000548:	00002517          	auipc	a0,0x2
    8000054c:	b8050513          	addi	a0,a0,-1152 # 800020c8 <test_26_data>
    80000550:	00051007          	flh	ft0,0(a0)
    80000554:	00251087          	flh	ft1,2(a0)
    80000558:	00451107          	flh	ft2,4(a0)
    8000055c:	00651683          	lh	a3,6(a0)
    80000560:	c4201553          	fcvt.l.h	a0,ft0,rtz
    80000564:	001015f3          	fsflags	a1,zero
    80000568:	00000613          	li	a2,0
    8000056c:	36d51a63          	bne	a0,a3,800008e0 <fail>
    80000570:	36c59863          	bne	a1,a2,800008e0 <fail>

0000000080000574 <test_27>:
    80000574:	01b00193          	li	gp,27
    80000578:	00002517          	auipc	a0,0x2
    8000057c:	b5a50513          	addi	a0,a0,-1190 # 800020d2 <test_27_data>
    80000580:	00051007          	flh	ft0,0(a0)
    80000584:	00251087          	flh	ft1,2(a0)
    80000588:	00451107          	flh	ft2,4(a0)
    8000058c:	00651683          	lh	a3,6(a0)
    80000590:	c4201553          	fcvt.l.h	a0,ft0,rtz
    80000594:	001015f3          	fsflags	a1,zero
    80000598:	00100613          	li	a2,1
    8000059c:	34d51263          	bne	a0,a3,800008e0 <fail>
    800005a0:	34c59063          	bne	a1,a2,800008e0 <fail>

00000000800005a4 <test_32>:
    800005a4:	02000193          	li	gp,32
    800005a8:	00002517          	auipc	a0,0x2
    800005ac:	b3450513          	addi	a0,a0,-1228 # 800020dc <test_32_data>
    800005b0:	00051007          	flh	ft0,0(a0)
    800005b4:	00251087          	flh	ft1,2(a0)
    800005b8:	00451107          	flh	ft2,4(a0)
    800005bc:	00651683          	lh	a3,6(a0)
    800005c0:	c4301553          	fcvt.lu.h	a0,ft0,rtz
    800005c4:	001015f3          	fsflags	a1,zero
    800005c8:	01000613          	li	a2,16
    800005cc:	30d51a63          	bne	a0,a3,800008e0 <fail>
    800005d0:	30c59863          	bne	a1,a2,800008e0 <fail>

00000000800005d4 <test_33>:
    800005d4:	02100193          	li	gp,33
    800005d8:	00002517          	auipc	a0,0x2
    800005dc:	b0e50513          	addi	a0,a0,-1266 # 800020e6 <test_33_data>
    800005e0:	00051007          	flh	ft0,0(a0)
    800005e4:	00251087          	flh	ft1,2(a0)
    800005e8:	00451107          	flh	ft2,4(a0)
    800005ec:	00651683          	lh	a3,6(a0)
    800005f0:	c4301553          	fcvt.lu.h	a0,ft0,rtz
    800005f4:	001015f3          	fsflags	a1,zero
    800005f8:	01000613          	li	a2,16
    800005fc:	2ed51263          	bne	a0,a3,800008e0 <fail>
    80000600:	2ec59063          	bne	a1,a2,800008e0 <fail>

0000000080000604 <test_34>:
    80000604:	02200193          	li	gp,34
    80000608:	00002517          	auipc	a0,0x2
    8000060c:	ae850513          	addi	a0,a0,-1304 # 800020f0 <test_34_data>
    80000610:	00051007          	flh	ft0,0(a0)
    80000614:	00251087          	flh	ft1,2(a0)
    80000618:	00451107          	flh	ft2,4(a0)
    8000061c:	00651683          	lh	a3,6(a0)
    80000620:	c4301553          	fcvt.lu.h	a0,ft0,rtz
    80000624:	001015f3          	fsflags	a1,zero
    80000628:	00100613          	li	a2,1
    8000062c:	2ad51a63          	bne	a0,a3,800008e0 <fail>
    80000630:	2ac59863          	bne	a1,a2,800008e0 <fail>

0000000080000634 <test_35>:
    80000634:	02300193          	li	gp,35
    80000638:	00002517          	auipc	a0,0x2
    8000063c:	ac250513          	addi	a0,a0,-1342 # 800020fa <test_35_data>
    80000640:	00051007          	flh	ft0,0(a0)
    80000644:	00251087          	flh	ft1,2(a0)
    80000648:	00451107          	flh	ft2,4(a0)
    8000064c:	00651683          	lh	a3,6(a0)
    80000650:	c4301553          	fcvt.lu.h	a0,ft0,rtz
    80000654:	001015f3          	fsflags	a1,zero
    80000658:	00100613          	li	a2,1
    8000065c:	28d51263          	bne	a0,a3,800008e0 <fail>
    80000660:	28c59063          	bne	a1,a2,800008e0 <fail>

0000000080000664 <test_36>:
    80000664:	02400193          	li	gp,36
    80000668:	00002517          	auipc	a0,0x2
    8000066c:	a9c50513          	addi	a0,a0,-1380 # 80002104 <test_36_data>
    80000670:	00051007          	flh	ft0,0(a0)
    80000674:	00251087          	flh	ft1,2(a0)
    80000678:	00451107          	flh	ft2,4(a0)
    8000067c:	00651683          	lh	a3,6(a0)
    80000680:	c4301553          	fcvt.lu.h	a0,ft0,rtz
    80000684:	001015f3          	fsflags	a1,zero
    80000688:	00000613          	li	a2,0
    8000068c:	24d51a63          	bne	a0,a3,800008e0 <fail>
    80000690:	24c59863          	bne	a1,a2,800008e0 <fail>

0000000080000694 <test_37>:
    80000694:	02500193          	li	gp,37
    80000698:	00002517          	auipc	a0,0x2
    8000069c:	a7650513          	addi	a0,a0,-1418 # 8000210e <test_37_data>
    800006a0:	00051007          	flh	ft0,0(a0)
    800006a4:	00251087          	flh	ft1,2(a0)
    800006a8:	00451107          	flh	ft2,4(a0)
    800006ac:	00651683          	lh	a3,6(a0)
    800006b0:	c4301553          	fcvt.lu.h	a0,ft0,rtz
    800006b4:	001015f3          	fsflags	a1,zero
    800006b8:	00100613          	li	a2,1
    800006bc:	22d51263          	bne	a0,a3,800008e0 <fail>
    800006c0:	22c59063          	bne	a1,a2,800008e0 <fail>

00000000800006c4 <test_38>:
    800006c4:	02600193          	li	gp,38
    800006c8:	00002517          	auipc	a0,0x2
    800006cc:	a5050513          	addi	a0,a0,-1456 # 80002118 <test_38_data>
    800006d0:	00051007          	flh	ft0,0(a0)
    800006d4:	00251087          	flh	ft1,2(a0)
    800006d8:	00451107          	flh	ft2,4(a0)
    800006dc:	00651683          	lh	a3,6(a0)
    800006e0:	c4301553          	fcvt.lu.h	a0,ft0,rtz
    800006e4:	001015f3          	fsflags	a1,zero
    800006e8:	01000613          	li	a2,16
    800006ec:	1ed51a63          	bne	a0,a3,800008e0 <fail>
    800006f0:	1ec59863          	bne	a1,a2,800008e0 <fail>

00000000800006f4 <test_42>:
    800006f4:	02a00193          	li	gp,42
    800006f8:	00002097          	auipc	ra,0x2
    800006fc:	a3808093          	addi	ra,ra,-1480 # 80002130 <begin_signature>
    80000700:	0000a087          	flw	ft1,0(ra)
    80000704:	c400f0d3          	fcvt.w.h	ra,ft1
    80000708:	800003b7          	lui	t2,0x80000
    8000070c:	fff3839b          	addiw	t2,t2,-1 # 7fffffff <_start-0x1>
    80000710:	1c709863          	bne	ra,t2,800008e0 <fail>

0000000080000714 <test_43>:
    80000714:	02b00193          	li	gp,43
    80000718:	00002097          	auipc	ra,0x2
    8000071c:	a1808093          	addi	ra,ra,-1512 # 80002130 <begin_signature>
    80000720:	0080a087          	flw	ft1,8(ra)
    80000724:	c400f0d3          	fcvt.w.h	ra,ft1
    80000728:	800003b7          	lui	t2,0x80000
    8000072c:	1a709a63          	bne	ra,t2,800008e0 <fail>

0000000080000730 <test_44>:
    80000730:	02c00193          	li	gp,44
    80000734:	00002097          	auipc	ra,0x2
    80000738:	9fc08093          	addi	ra,ra,-1540 # 80002130 <begin_signature>
    8000073c:	0000a087          	flw	ft1,0(ra)
    80000740:	c420f0d3          	fcvt.l.h	ra,ft1
    80000744:	fff0039b          	addiw	t2,zero,-1
    80000748:	03f39393          	slli	t2,t2,0x3f
    8000074c:	fff38393          	addi	t2,t2,-1 # ffffffff7fffffff <_end+0xfffffffeffffdebf>
    80000750:	18709863          	bne	ra,t2,800008e0 <fail>

0000000080000754 <test_45>:
    80000754:	02d00193          	li	gp,45
    80000758:	00002097          	auipc	ra,0x2
    8000075c:	9d808093          	addi	ra,ra,-1576 # 80002130 <begin_signature>
    80000760:	0080a087          	flw	ft1,8(ra)
    80000764:	c420f0d3          	fcvt.l.h	ra,ft1
    80000768:	fff0039b          	addiw	t2,zero,-1
    8000076c:	03f39393          	slli	t2,t2,0x3f
    80000770:	16709863          	bne	ra,t2,800008e0 <fail>

0000000080000774 <test_52>:
    80000774:	03400193          	li	gp,52
    80000778:	00002097          	auipc	ra,0x2
    8000077c:	9b808093          	addi	ra,ra,-1608 # 80002130 <begin_signature>
    80000780:	0040a087          	flw	ft1,4(ra)
    80000784:	c400f0d3          	fcvt.w.h	ra,ft1
    80000788:	800003b7          	lui	t2,0x80000
    8000078c:	fff3839b          	addiw	t2,t2,-1 # 7fffffff <_start-0x1>
    80000790:	14709863          	bne	ra,t2,800008e0 <fail>

0000000080000794 <test_53>:
    80000794:	03500193          	li	gp,53
    80000798:	00002097          	auipc	ra,0x2
    8000079c:	99808093          	addi	ra,ra,-1640 # 80002130 <begin_signature>
    800007a0:	00c0a087          	flw	ft1,12(ra)
    800007a4:	c400f0d3          	fcvt.w.h	ra,ft1
    800007a8:	800003b7          	lui	t2,0x80000
    800007ac:	fff3839b          	addiw	t2,t2,-1 # 7fffffff <_start-0x1>
    800007b0:	12709863          	bne	ra,t2,800008e0 <fail>

00000000800007b4 <test_54>:
    800007b4:	03600193          	li	gp,54
    800007b8:	00002097          	auipc	ra,0x2
    800007bc:	97808093          	addi	ra,ra,-1672 # 80002130 <begin_signature>
    800007c0:	0040a087          	flw	ft1,4(ra)
    800007c4:	c420f0d3          	fcvt.l.h	ra,ft1
    800007c8:	fff0039b          	addiw	t2,zero,-1
    800007cc:	03f39393          	slli	t2,t2,0x3f
    800007d0:	fff38393          	addi	t2,t2,-1
    800007d4:	10709663          	bne	ra,t2,800008e0 <fail>

00000000800007d8 <test_55>:
    800007d8:	03700193          	li	gp,55
    800007dc:	00002097          	auipc	ra,0x2
    800007e0:	95408093          	addi	ra,ra,-1708 # 80002130 <begin_signature>
    800007e4:	00c0a087          	flw	ft1,12(ra)
    800007e8:	c420f0d3          	fcvt.l.h	ra,ft1
    800007ec:	fff0039b          	addiw	t2,zero,-1
    800007f0:	03f39393          	slli	t2,t2,0x3f
    800007f4:	fff38393          	addi	t2,t2,-1
    800007f8:	0e709463          	bne	ra,t2,800008e0 <fail>

00000000800007fc <test_62>:
    800007fc:	03e00193          	li	gp,62
    80000800:	00002097          	auipc	ra,0x2
    80000804:	93008093          	addi	ra,ra,-1744 # 80002130 <begin_signature>
    80000808:	0000a087          	flw	ft1,0(ra)
    8000080c:	c410f0d3          	fcvt.wu.h	ra,ft1
    80000810:	fff00393          	li	t2,-1
    80000814:	0c709663          	bne	ra,t2,800008e0 <fail>

0000000080000818 <test_63>:
    80000818:	03f00193          	li	gp,63
    8000081c:	00002097          	auipc	ra,0x2
    80000820:	91408093          	addi	ra,ra,-1772 # 80002130 <begin_signature>
    80000824:	0040a087          	flw	ft1,4(ra)
    80000828:	c410f0d3          	fcvt.wu.h	ra,ft1
    8000082c:	fff00393          	li	t2,-1
    80000830:	0a709863          	bne	ra,t2,800008e0 <fail>

0000000080000834 <test_64>:
    80000834:	04000193          	li	gp,64
    80000838:	00002097          	auipc	ra,0x2
    8000083c:	8f808093          	addi	ra,ra,-1800 # 80002130 <begin_signature>
    80000840:	0080a087          	flw	ft1,8(ra)
    80000844:	c410f0d3          	fcvt.wu.h	ra,ft1
    80000848:	00000393          	li	t2,0
    8000084c:	08709a63          	bne	ra,t2,800008e0 <fail>

0000000080000850 <test_65>:
    80000850:	04100193          	li	gp,65
    80000854:	00002097          	auipc	ra,0x2
    80000858:	8dc08093          	addi	ra,ra,-1828 # 80002130 <begin_signature>
    8000085c:	00c0a087          	flw	ft1,12(ra)
    80000860:	c410f0d3          	fcvt.wu.h	ra,ft1
    80000864:	fff00393          	li	t2,-1
    80000868:	06709c63          	bne	ra,t2,800008e0 <fail>

000000008000086c <test_66>:
    8000086c:	04200193          	li	gp,66
    80000870:	00002097          	auipc	ra,0x2
    80000874:	8c008093          	addi	ra,ra,-1856 # 80002130 <begin_signature>
    80000878:	0000a087          	flw	ft1,0(ra)
    8000087c:	c430f0d3          	fcvt.lu.h	ra,ft1
    80000880:	fff00393          	li	t2,-1
    80000884:	04709e63          	bne	ra,t2,800008e0 <fail>

0000000080000888 <test_67>:
    80000888:	04300193          	li	gp,67
    8000088c:	00002097          	auipc	ra,0x2
    80000890:	8a408093          	addi	ra,ra,-1884 # 80002130 <begin_signature>
    80000894:	0040a087          	flw	ft1,4(ra)
    80000898:	c430f0d3          	fcvt.lu.h	ra,ft1
    8000089c:	fff00393          	li	t2,-1
    800008a0:	04709063          	bne	ra,t2,800008e0 <fail>

00000000800008a4 <test_68>:
    800008a4:	04400193          	li	gp,68
    800008a8:	00002097          	auipc	ra,0x2
    800008ac:	88808093          	addi	ra,ra,-1912 # 80002130 <begin_signature>
    800008b0:	0080a087          	flw	ft1,8(ra)
    800008b4:	c430f0d3          	fcvt.lu.h	ra,ft1
    800008b8:	00000393          	li	t2,0
    800008bc:	02709263          	bne	ra,t2,800008e0 <fail>

00000000800008c0 <test_69>:
    800008c0:	04500193          	li	gp,69
    800008c4:	00002097          	auipc	ra,0x2
    800008c8:	86c08093          	addi	ra,ra,-1940 # 80002130 <begin_signature>
    800008cc:	00c0a087          	flw	ft1,12(ra)
    800008d0:	c430f0d3          	fcvt.lu.h	ra,ft1
    800008d4:	fff00393          	li	t2,-1
    800008d8:	00709463          	bne	ra,t2,800008e0 <fail>
    800008dc:	02301063          	bne	zero,gp,800008fc <pass>

00000000800008e0 <fail>:
    800008e0:	0ff0000f          	fence
    800008e4:	00018063          	beqz	gp,800008e4 <fail+0x4>
    800008e8:	00119193          	slli	gp,gp,0x1
    800008ec:	0011e193          	ori	gp,gp,1
    800008f0:	05d00893          	li	a7,93
    800008f4:	00018513          	mv	a0,gp
    800008f8:	00000073          	ecall

00000000800008fc <pass>:
    800008fc:	0ff0000f          	fence
    80000900:	00100193          	li	gp,1
    80000904:	05d00893          	li	a7,93
    80000908:	00000513          	li	a0,0
    8000090c:	00000073          	ecall
    80000910:	c0001073          	unimp
    80000914:	0000                	.2byte	0x0
    80000916:	0000                	.2byte	0x0
    80000918:	0000                	.2byte	0x0
    8000091a:	0000                	.2byte	0x0
    8000091c:	0000                	.2byte	0x0
    8000091e:	0000                	.2byte	0x0
    80000920:	0000                	.2byte	0x0
    80000922:	0000                	.2byte	0x0
    80000924:	0000                	.2byte	0x0
    80000926:	0000                	.2byte	0x0
    80000928:	0000                	.2byte	0x0
    8000092a:	0000                	.2byte	0x0
    8000092c:	0000                	.2byte	0x0
    8000092e:	0000                	.2byte	0x0
    80000930:	0000                	.2byte	0x0
    80000932:	0000                	.2byte	0x0
    80000934:	0000                	.2byte	0x0
    80000936:	0000                	.2byte	0x0
    80000938:	0000                	.2byte	0x0
    8000093a:	0000                	.2byte	0x0

Дизассемблирование раздела .data:

0000000080002000 <test_2_data>:
    80002000:	bc66                	.2byte	0xbc66
    80002002:	0000                	.2byte	0x0
    80002004:	0000                	.2byte	0x0
    80002006:	ffff                	.2byte	0xffff
    80002008:	ffff                	.2byte	0xffff

000000008000200a <test_3_data>:
    8000200a:	bc00                	.2byte	0xbc00
    8000200c:	0000                	.2byte	0x0
    8000200e:	0000                	.2byte	0x0
    80002010:	ffff                	.2byte	0xffff
    80002012:	ffff                	.2byte	0xffff

0000000080002014 <test_4_data>:
    80002014:	0000bb33          	sltu	s6,ra,zero
    80002018:	0000                	.2byte	0x0
    8000201a:	0000                	.2byte	0x0
    8000201c:	0000                	.2byte	0x0

000000008000201e <test_5_data>:
    8000201e:	00003b33          	snez	s6,zero
    80002022:	0000                	.2byte	0x0
    80002024:	0000                	.2byte	0x0
    80002026:	0000                	.2byte	0x0

0000000080002028 <test_6_data>:
    80002028:	3c00                	.2byte	0x3c00
    8000202a:	0000                	.2byte	0x0
    8000202c:	0000                	.2byte	0x0
    8000202e:	0001                	.2byte	0x1
    80002030:	0000                	.2byte	0x0

0000000080002032 <test_7_data>:
    80002032:	3c66                	.2byte	0x3c66
    80002034:	0000                	.2byte	0x0
    80002036:	0000                	.2byte	0x0
    80002038:	0001                	.2byte	0x1
    8000203a:	0000                	.2byte	0x0

000000008000203c <test_8_data>:
    8000203c:	0000e803          	lwu	a6,0(ra)
    80002040:	0000                	.2byte	0x0
    80002042:	f7fa                	.2byte	0xf7fa
    80002044:	ffff                	.2byte	0xffff

0000000080002046 <test_9_data>:
    80002046:	00006803          	lwu	a6,0(zero) # 0 <_start-0x80000000>
    8000204a:	0000                	.2byte	0x0
    8000204c:	0806                	.2byte	0x806
    8000204e:	0000                	.2byte	0x0

0000000080002050 <test_12_data>:
    80002050:	c200                	.2byte	0xc200
    80002052:	0000                	.2byte	0x0
    80002054:	0000                	.2byte	0x0
    80002056:	0000                	.2byte	0x0
    80002058:	0000                	.2byte	0x0

000000008000205a <test_13_data>:
    8000205a:	bc00                	.2byte	0xbc00
    8000205c:	0000                	.2byte	0x0
    8000205e:	0000                	.2byte	0x0
    80002060:	0000                	.2byte	0x0
    80002062:	0000                	.2byte	0x0

0000000080002064 <test_14_data>:
    80002064:	0000bb33          	sltu	s6,ra,zero
    80002068:	0000                	.2byte	0x0
    8000206a:	0000                	.2byte	0x0
    8000206c:	0000                	.2byte	0x0

000000008000206e <test_15_data>:
    8000206e:	00003b33          	snez	s6,zero
    80002072:	0000                	.2byte	0x0
    80002074:	0000                	.2byte	0x0
    80002076:	0000                	.2byte	0x0

0000000080002078 <test_16_data>:
    80002078:	3c00                	.2byte	0x3c00
    8000207a:	0000                	.2byte	0x0
    8000207c:	0000                	.2byte	0x0
    8000207e:	0001                	.2byte	0x1
    80002080:	0000                	.2byte	0x0

0000000080002082 <test_17_data>:
    80002082:	3c66                	.2byte	0x3c66
    80002084:	0000                	.2byte	0x0
    80002086:	0000                	.2byte	0x0
    80002088:	0001                	.2byte	0x1
    8000208a:	0000                	.2byte	0x0

000000008000208c <test_18_data>:
    8000208c:	0000e803          	lwu	a6,0(ra)
    80002090:	0000                	.2byte	0x0
    80002092:	0000                	.2byte	0x0
    80002094:	0000                	.2byte	0x0

0000000080002096 <test_19_data>:
    80002096:	00006803          	lwu	a6,0(zero) # 0 <_start-0x80000000>
    8000209a:	0000                	.2byte	0x0
    8000209c:	0806                	.2byte	0x806
    8000209e:	0000                	.2byte	0x0

00000000800020a0 <test_22_data>:
    800020a0:	bc66                	.2byte	0xbc66
    800020a2:	0000                	.2byte	0x0
    800020a4:	0000                	.2byte	0x0
    800020a6:	ffff                	.2byte	0xffff
    800020a8:	ffff                	.2byte	0xffff

00000000800020aa <test_23_data>:
    800020aa:	bc00                	.2byte	0xbc00
    800020ac:	0000                	.2byte	0x0
    800020ae:	0000                	.2byte	0x0
    800020b0:	ffff                	.2byte	0xffff
    800020b2:	ffff                	.2byte	0xffff

00000000800020b4 <test_24_data>:
    800020b4:	0000bb33          	sltu	s6,ra,zero
    800020b8:	0000                	.2byte	0x0
    800020ba:	0000                	.2byte	0x0
    800020bc:	0000                	.2byte	0x0

00000000800020be <test_25_data>:
    800020be:	00003b33          	snez	s6,zero
    800020c2:	0000                	.2byte	0x0
    800020c4:	0000                	.2byte	0x0
    800020c6:	0000                	.2byte	0x0

00000000800020c8 <test_26_data>:
    800020c8:	3c00                	.2byte	0x3c00
    800020ca:	0000                	.2byte	0x0
    800020cc:	0000                	.2byte	0x0
    800020ce:	0001                	.2byte	0x1
    800020d0:	0000                	.2byte	0x0

00000000800020d2 <test_27_data>:
    800020d2:	3c66                	.2byte	0x3c66
    800020d4:	0000                	.2byte	0x0
    800020d6:	0000                	.2byte	0x0
    800020d8:	0001                	.2byte	0x1
    800020da:	0000                	.2byte	0x0

00000000800020dc <test_32_data>:
    800020dc:	c200                	.2byte	0xc200
    800020de:	0000                	.2byte	0x0
    800020e0:	0000                	.2byte	0x0
    800020e2:	0000                	.2byte	0x0
    800020e4:	0000                	.2byte	0x0

00000000800020e6 <test_33_data>:
    800020e6:	bc00                	.2byte	0xbc00
    800020e8:	0000                	.2byte	0x0
    800020ea:	0000                	.2byte	0x0
    800020ec:	0000                	.2byte	0x0
    800020ee:	0000                	.2byte	0x0

00000000800020f0 <test_34_data>:
    800020f0:	0000bb33          	sltu	s6,ra,zero
    800020f4:	0000                	.2byte	0x0
    800020f6:	0000                	.2byte	0x0
    800020f8:	0000                	.2byte	0x0

00000000800020fa <test_35_data>:
    800020fa:	00003b33          	snez	s6,zero
    800020fe:	0000                	.2byte	0x0
    80002100:	0000                	.2byte	0x0
    80002102:	0000                	.2byte	0x0

0000000080002104 <test_36_data>:
    80002104:	3c00                	.2byte	0x3c00
    80002106:	0000                	.2byte	0x0
    80002108:	0000                	.2byte	0x0
    8000210a:	0001                	.2byte	0x1
    8000210c:	0000                	.2byte	0x0

000000008000210e <test_37_data>:
    8000210e:	3c66                	.2byte	0x3c66
    80002110:	0000                	.2byte	0x0
    80002112:	0000                	.2byte	0x0
    80002114:	0001                	.2byte	0x1
    80002116:	0000                	.2byte	0x0

0000000080002118 <test_38_data>:
    80002118:	0000e483          	lwu	s1,0(ra)
    8000211c:	0000                	.2byte	0x0
    8000211e:	0000                	.2byte	0x0
    80002120:	0000                	.2byte	0x0
    80002122:	0000                	.2byte	0x0
    80002124:	0000                	.2byte	0x0
    80002126:	0000                	.2byte	0x0
    80002128:	0000                	.2byte	0x0
    8000212a:	0000                	.2byte	0x0
    8000212c:	0000                	.2byte	0x0
    8000212e:	0000                	.2byte	0x0

0000000080002130 <begin_signature>:
    80002130:	ffff                	.2byte	0xffff
    80002132:	ffff                	.2byte	0xffff
    80002134:	7fff                	.2byte	0x7fff
    80002136:	ffff                	.2byte	0xffff
    80002138:	fc00                	.2byte	0xfc00
    8000213a:	ffff                	.2byte	0xffff
    8000213c:	7c00                	.2byte	0x7c00
    8000213e:	ffff                	.2byte	0xffff
